MAGIC:
oat
039

CHECKSUM:
0x47ed8c4a

INSTRUCTION SET:
Thumb2

INSTRUCTION SET FEATURES:
none

DEX FILE COUNT:
1

EXECUTABLE OFFSET:
0x00006000

INTERPRETER TO INTERPRETER BRIDGE OFFSET:
0x00000000

INTERPRETER TO COMPILED CODE BRIDGE OFFSET:
0x00000000

JNI DLSYM LOOKUP OFFSET:
0x00000000

PORTABLE IMT CONFLICT TRAMPOLINE OFFSET:
0x00000000

PORTABLE RESOLUTION TRAMPOLINE OFFSET:
0x00000000

PORTABLE TO INTERPRETER BRIDGE OFFSET:
0x00000000

QUICK GENERIC JNI TRAMPOLINE OFFSET:
0x00000000

QUICK IMT CONFLICT TRAMPOLINE OFFSET:
0x00000000

QUICK RESOLUTION TRAMPOLINE OFFSET:
0x00000000

QUICK TO INTERPRETER BRIDGE OFFSET:
0x00000000

IMAGE PATCH DELTA:
-7745536 (0xff89d000)

IMAGE FILE LOCATION OAT CHECKSUM:
0x4dbef4fa

IMAGE FILE LOCATION OAT BEGIN:
0x703bf000

KEY VALUE STORE:
dex2oat-cmdline = --zip-fd=6 --zip-location=/data/app/com.android.cm3-1/base.apk --oat-fd=7 --oat-location=/data/dalvik-cache/arm/data@app@com.android.cm3-1@base.apk@classes.dex --instruction-set=arm --instruction-set-features=default --runtime-arg -Xms64m --runtime-arg -Xmx512m --compiler-filter=everything
dex2oat-host = Arm
image-location = /data/dalvik-cache/arm/system@framework@boot.art

SIZE:
39984

OatDexFile:
location: /data/app/com.android.cm3-1/base.apk
checksum: 0xf46383df
0: Lcom/android/cm3/BenchmarkAtom; (offset=0x00004464) (type_idx=9) (StatusInitialized) (OatClassNoneCompiled)
  0: int com.android.cm3.BenchmarkAtom.cleanUp() (dex_method_idx=5) 1025
    DEX CODE:
    OatMethodOffsets (offset=0x00000000)
      code_offset: 0x00000000 
      gc_map: (offset=0x00000000)
    OatQuickMethodHeader (offset=0x00000000)
      mapping_table: (offset=0x00000000)
      vmap_table: (offset=0x00000000)
    QuickMethodFrameInfo
      frame_size_in_bytes: 0
      core_spill_mask: 0x00000000 
      fp_spill_mask: 0x00000000 
    CODE: (code_offset=0x00000000 size_offset=0x00000000 size=0)
      NO CODE!
  1: int com.android.cm3.BenchmarkAtom.defaultMagnification() (dex_method_idx=6) 1025
    DEX CODE:
    OatMethodOffsets (offset=0x00000000)
      code_offset: 0x00000000 
      gc_map: (offset=0x00000000)
    OatQuickMethodHeader (offset=0x00000000)
      mapping_table: (offset=0x00000000)
      vmap_table: (offset=0x00000000)
    QuickMethodFrameInfo
      frame_size_in_bytes: 0
      core_spill_mask: 0x00000000 
      fp_spill_mask: 0x00000000 
    CODE: (code_offset=0x00000000 size_offset=0x00000000 size=0)
      NO CODE!
  2: int com.android.cm3.BenchmarkAtom.execute() (dex_method_idx=7) 1025
    DEX CODE:
    OatMethodOffsets (offset=0x00000000)
      code_offset: 0x00000000 
      gc_map: (offset=0x00000000)
    OatQuickMethodHeader (offset=0x00000000)
      mapping_table: (offset=0x00000000)
      vmap_table: (offset=0x00000000)
    QuickMethodFrameInfo
      frame_size_in_bytes: 0
      core_spill_mask: 0x00000000 
      fp_spill_mask: 0x00000000 
    CODE: (code_offset=0x00000000 size_offset=0x00000000 size=0)
      NO CODE!
  3: boolean com.android.cm3.BenchmarkAtom.initialize(int) (dex_method_idx=8) 1025
    DEX CODE:
    OatMethodOffsets (offset=0x00000000)
      code_offset: 0x00000000 
      gc_map: (offset=0x00000000)
    OatQuickMethodHeader (offset=0x00000000)
      mapping_table: (offset=0x00000000)
      vmap_table: (offset=0x00000000)
    QuickMethodFrameInfo
      frame_size_in_bytes: 0
      core_spill_mask: 0x00000000 
      fp_spill_mask: 0x00000000 
    CODE: (code_offset=0x00000000 size_offset=0x00000000 size=0)
      NO CODE!
  4: void com.android.cm3.BenchmarkAtom.setLocal() (dex_method_idx=9) 1025
    DEX CODE:
    OatMethodOffsets (offset=0x00000000)
      code_offset: 0x00000000 
      gc_map: (offset=0x00000000)
    OatQuickMethodHeader (offset=0x00000000)
      mapping_table: (offset=0x00000000)
      vmap_table: (offset=0x00000000)
    QuickMethodFrameInfo
      frame_size_in_bytes: 0
      core_spill_mask: 0x00000000 
      fp_spill_mask: 0x00000000 
    CODE: (code_offset=0x00000000 size_offset=0x00000000 size=0)
      NO CODE!
  5: void com.android.cm3.BenchmarkAtom.setRemote() (dex_method_idx=10) 1025
    DEX CODE:
    OatMethodOffsets (offset=0x00000000)
      code_offset: 0x00000000 
      gc_map: (offset=0x00000000)
    OatQuickMethodHeader (offset=0x00000000)
      mapping_table: (offset=0x00000000)
      vmap_table: (offset=0x00000000)
    QuickMethodFrameInfo
      frame_size_in_bytes: 0
      core_spill_mask: 0x00000000 
      fp_spill_mask: 0x00000000 
    CODE: (code_offset=0x00000000 size_offset=0x00000000 size=0)
      NO CODE!
  6: java.lang.String com.android.cm3.BenchmarkAtom.testName() (dex_method_idx=11) 1025
    DEX CODE:
    OatMethodOffsets (offset=0x00000000)
      code_offset: 0x00000000 
      gc_map: (offset=0x00000000)
    OatQuickMethodHeader (offset=0x00000000)
      mapping_table: (offset=0x00000000)
      vmap_table: (offset=0x00000000)
    QuickMethodFrameInfo
      frame_size_in_bytes: 0
      core_spill_mask: 0x00000000 
      fp_spill_mask: 0x00000000 
    CODE: (code_offset=0x00000000 size_offset=0x00000000 size=0)
      NO CODE!
1: Lcom/android/cm3/BenchmarkMonitor; (offset=0x00004468) (type_idx=10) (StatusInitialized) (OatClassNoneCompiled)
  0: boolean com.android.cm3.BenchmarkMonitor.status(int, int) (dex_method_idx=12) 1025
    DEX CODE:
    OatMethodOffsets (offset=0x00000000)
      code_offset: 0x00000000 
      gc_map: (offset=0x00000000)
    OatQuickMethodHeader (offset=0x00000000)
      mapping_table: (offset=0x00000000)
      vmap_table: (offset=0x00000000)
    QuickMethodFrameInfo
      frame_size_in_bytes: 0
      core_spill_mask: 0x00000000 
      fp_spill_mask: 0x00000000 
    CODE: (code_offset=0x00000000 size_offset=0x00000000 size=0)
      NO CODE!
2: Lcom/android/cm3/BenchmarkUnit; (offset=0x0000446c) (type_idx=11) (StatusVerified) (OatClassSomeCompiled)
  0: void com.android.cm3.BenchmarkUnit.<clinit>() (dex_method_idx=13) 65544
    DEX CODE:
      0x0000: const/16 v0, #+1000
      0x0002: sput v0, I com.android.cm3.BenchmarkUnit.wTESTMILLISECONDS // field@4
      0x0004: return-void
    OatMethodOffsets (offset=0x00000000)
      code_offset: 0x00000000 
      gc_map: (offset=0x00000000)
    OatQuickMethodHeader (offset=0x00000000)
      mapping_table: (offset=0x00000000)
      vmap_table: (offset=0x00000000)
    QuickMethodFrameInfo
      frame_size_in_bytes: 0
      core_spill_mask: 0x00000000 
      fp_spill_mask: 0x00000000 
    CODE: (code_offset=0x00000000 size_offset=0x00000000 size=0)
      NO CODE!
  1: void com.android.cm3.BenchmarkUnit.<init>(com.android.cm3.BenchmarkAtom) (dex_method_idx=14) 65537
    DEX CODE:
      0x0000: invoke-direct {v1}, void java.lang.Object.<init>() // method@120
      0x0003: const/16 v0, #+1000
      0x0005: iput v0, v1, I com.android.cm3.BenchmarkUnit.magnification // field@2
      0x0007: iput-object v2, v1, Lcom/android/cm3/BenchmarkAtom; com.android.cm3.BenchmarkUnit.unitAtom // field@3
      0x0009: invoke-interface {v2}, int com.android.cm3.BenchmarkAtom.defaultMagnification() // method@6
      0x000c: move-result v0
      0x000d: iput v0, v1, I com.android.cm3.BenchmarkUnit.magnification // field@2
      0x000f: return-void
    OatMethodOffsets (offset=0x00004478)
      code_offset: 0x00006019 
      gc_map: (offset=0x000047b4)
    OatQuickMethodHeader (offset=0x00006000)
      mapping_table: (offset=0x0000505e)
      vmap_table: (offset=0x000055ac)
      v1/r5, v2/r6, v65534/r7, v0/r8, v65535/r15
    QuickMethodFrameInfo
      frame_size_in_bytes: 48
      core_spill_mask: 0x000081e0 (r5, r6, r7, r8, r15)
      fp_spill_mask: 0x00000000 
    CODE: (code_offset=0x00006019 size_offset=0x00006014 size=108)...
      0x00006018: f5bd5c00	subs    r12, sp, #8192
      0x0000601c: f8dcc000	ldr.w   r12, [r12, #0]
      suspend point dex PC: 0x0000
      GC map objects:  v1 (r5), v2 (r6)
      0x00006020: e92d41e0	push    {r5, r6, r7, r8, lr}
      0x00006024: b087    	sub     sp, sp, #28
      0x00006026: 1c07    	mov     r7, r0
      0x00006028: 9000    	str     r0, [sp, #0]
      0x0000602a: 1c0d    	mov     r5, r1
      0x0000602c: 1c16    	mov     r6, r2
      0x0000602e: f24b0e71	movw    lr, #45169
      0x00006032: f2c71ee7	movt    lr, #29159
      0x00006036: f24d3060	movw    r0, #54112
      0x0000603a: f6c6708c	movt    r0, #28556
      0x0000603e: 1c29    	mov     r1, r5
      0x00006040: 47f0    	blx     lr
      suspend point dex PC: 0x0000
      GC map objects:  v1 (r5), v2 (r6)
      0x00006042: f44f787a	mov.w   r8, #1000
      0x00006046: f8c58014	str.w   r8, [r5, #20]
      0x0000604a: 60ae    	str     r6, [r5, #8]
      0x0000604c: b11e    	cbz     r6, +6 (0x00006056)
      0x0000604e: f8d92078	ldr.w   r2, [r9, #120]  ; card_table
      0x00006052: 09eb    	lsrs    r3, r5, #7
      0x00006054: 54d2    	strb    r2, [r2, r3]
      0x00006056: f04f0c06	mov.w   r12, #6
      0x0000605a: 1c31    	mov     r1, r6
      0x0000605c: 6808    	ldr     r0, [r1, #0]
      suspend point dex PC: 0x0009
      GC map objects:  v1 (r5), v2 (r6)
      0x0000605e: f8d00084	ldr.w   r0, [r0, #132]
      0x00006062: f8d0e028	ldr.w   lr, [r0, #40]
      0x00006066: 47f0    	blx     lr
      suspend point dex PC: 0x0009
      GC map objects:  v1 (r5), v2 (r6)
      0x00006068: 4680    	mov     r8, r0
      0x0000606a: f8c58014	str.w   r8, [r5, #20]
      0x0000606e: 3c01    	subs    r4, #1
      0x00006070: f0008003	beq.w   +6 (0x0000607a)
      0x00006074: b007    	add     sp, sp, #28
      0x00006076: e8bd81e0	pop     {r5, r6, r7, r8, pc}
      0x0000607a: f8d9e230	ldr.w   lr, [r9, #560]  ; pTestSuspend
      0x0000607e: 47f0    	blx     lr
      suspend point dex PC: 0x000f
      0x00006080: e7f8    	b       -16 (0x00006074)
      0x00006082: 0000    	lsls    r0, r0, #0
  2: void com.android.cm3.BenchmarkUnit.calibrate() (dex_method_idx=15) 0
    DEX CODE:
      0x0000: invoke-virtual {v4}, int com.android.cm3.BenchmarkUnit.loopsPerSecond() // method@16
      0x0003: move-result v0
      0x0004: if-nez v0, +3
      0x0006: return-void
      0x0007: invoke-virtual {v4, v0}, int com.android.cm3.BenchmarkUnit.testMilliseconds(int) // method@19
      0x000a: move-result v1
      0x000b: if-eqz v1, +10
      0x000d: mul-int/lit8 v2, v1, #+100
      0x000f: mul-int/lit8 v3, v0, #+3
      0x0011: div-int/2addr v2, v3
      0x0012: iput v2, v4, I com.android.cm3.BenchmarkUnit.magnification // field@2
      0x0014: goto -14
      0x0015: const/4 v2, #+0
      0x0016: iput v2, v4, I com.android.cm3.BenchmarkUnit.magnification // field@2
      0x0018: goto -18
    OatMethodOffsets (offset=0x00004480)
      code_offset: 0x000060a1 
      gc_map: (offset=0x000047c2)
    OatQuickMethodHeader (offset=0x00006088)
      mapping_table: (offset=0x0000506a)
      vmap_table: (offset=0x000055b2)
      v4/r5, v0/r6, v1/r7, v2/r8, v65534/r10, v3/r11, v65535/r15
    QuickMethodFrameInfo
      frame_size_in_bytes: 64
      core_spill_mask: 0x00008de0 (r5, r6, r7, r8, r10, r11, r15)
      fp_spill_mask: 0x00000000 
    CODE: (code_offset=0x000060a1 size_offset=0x0000609c size=152)...
      0x000060a0: f5bd5c00	subs    r12, sp, #8192
      0x000060a4: f8dcc000	ldr.w   r12, [r12, #0]
      suspend point dex PC: 0x0000
      GC map objects:  v4 (r5)
      0x000060a8: e92d4de0	push    {r5, r6, r7, r8, r10, r11, lr}
      0x000060ac: b089    	sub     sp, sp, #36
      0x000060ae: 4682    	mov     r10, r0
      0x000060b0: 9000    	str     r0, [sp, #0]
      0x000060b2: 1c0d    	mov     r5, r1
      0x000060b4: 1c29    	mov     r1, r5
      0x000060b6: 6808    	ldr     r0, [r1, #0]
      0x000060b8: f8d001a0	ldr.w   r0, [r0, #416]
      0x000060bc: f8d0e028	ldr.w   lr, [r0, #40]
      0x000060c0: 47f0    	blx     lr
      suspend point dex PC: 0x0000
      GC map objects:  v4 (r5)
      0x000060c2: 1c06    	mov     r6, r0
      0x000060c4: b92e    	cbnz    r6, +10 (0x000060d2)
      0x000060c6: 3c01    	subs    r4, #1
      0x000060c8: f0008027	beq.w   +78 (0x0000611a)
      0x000060cc: b009    	add     sp, sp, #36
      0x000060ce: e8bd8de0	pop     {r5, r6, r7, r8, r10, r11, pc}
      0x000060d2: 1c29    	mov     r1, r5
      0x000060d4: 6808    	ldr     r0, [r1, #0]
      0x000060d6: 1c32    	mov     r2, r6
      0x000060d8: f8d001ac	ldr.w   r0, [r0, #428]
      0x000060dc: f8d0e028	ldr.w   lr, [r0, #40]
      0x000060e0: 47f0    	blx     lr
      suspend point dex PC: 0x0007
      GC map objects:  v4 (r5)
      0x000060e2: 1c07    	mov     r7, r0
      0x000060e4: b18f    	cbz     r7, +34 (0x0000610a)
      0x000060e6: 2264    	movs    r2, #100
      0x000060e8: fb07f802	mul     r8, r7, r2
      0x000060ec: f8d9e1e0	ldr.w   lr, [r9, #480]  ; pIdivmod
      0x000060f0: eb160b46	adds.w  r11, r6, r6, lsl #1
      0x000060f4: 4659    	mov     r1, r11
      0x000060f6: 4640    	mov     r0, r8
      0x000060f8: b199    	cbz     r1, +38 (0x00006122)
      0x000060fa: 47f0    	blx     lr
      0x000060fc: 4680    	mov     r8, r0
      0x000060fe: f8c58014	str.w   r8, [r5, #20]
      0x00006102: 3c01    	subs    r4, #1
      0x00006104: f47fafdf	bne.w   -66 (0x000060c6)
      0x00006108: e00e    	b       +28 (0x00006128)
      0x0000610a: f04f0800	mov.w   r8, #0
      0x0000610e: f8c58014	str.w   r8, [r5, #20]
      0x00006112: 3c01    	subs    r4, #1
      0x00006114: f47fafd7	bne.w   -82 (0x000060c6)
      0x00006118: e00a    	b       +20 (0x00006130)
      0x0000611a: f8d9e230	ldr.w   lr, [r9, #560]  ; pTestSuspend
      0x0000611e: 47f0    	blx     lr
      suspend point dex PC: 0x0006
      0x00006120: e7d4    	b       -88 (0x000060cc)
      0x00006122: f8d9e23c	ldr.w   lr, [r9, #572]  ; pThrowDivZero
      0x00006126: 47f0    	blx     lr
      suspend point dex PC: 0x0011
      GC map objects:  v4 (r5)
      0x00006128: f8d9e230	ldr.w   lr, [r9, #560]  ; pTestSuspend
      0x0000612c: 47f0    	blx     lr
      suspend point dex PC: 0x0014
      GC map objects:  v4 (r5)
      0x0000612e: e7ca    	b       -108 (0x000060c6)
      0x00006130: f8d9e230	ldr.w   lr, [r9, #560]  ; pTestSuspend
      0x00006134: 47f0    	blx     lr
      suspend point dex PC: 0x0018
      GC map objects:  v4 (r5)
      0x00006136: e7c6    	b       -116 (0x000060c6)
  3: int com.android.cm3.BenchmarkUnit.loopsPerSecond() (dex_method_idx=16) 0
    DEX CODE:
      0x0000: const/4 v3, #+0
      0x0001: const/4 v0, #+0
      0x0002: new-instance v1, com.android.cm3.StopWatch // type@27
      0x0004: invoke-direct {v1}, void com.android.cm3.StopWatch.<init>() // method@97
      0x0007: iget-object v2, v6, Lcom/android/cm3/BenchmarkAtom; com.android.cm3.BenchmarkUnit.unitAtom // field@3
      0x0009: invoke-interface {v2, v3}, boolean com.android.cm3.BenchmarkAtom.initialize(int) // method@8
      0x000c: move-result v2
      0x000d: if-nez v2, +4
      0x000f: move v2, v3
      0x0010: return v2
      0x0011: invoke-virtual {v1}, void com.android.cm3.StopWatch.StartTimer() // method@100
      0x0014: invoke-virtual {v1}, long com.android.cm3.StopWatch.Milliseconds() // method@99
      0x0017: move-result-wide v2
      0x0018: sget  v4, I com.android.cm3.BenchmarkUnit.wTESTMILLISECONDS // field@4
      0x001a: int-to-long v4, v4
      0x001b: cmp-long v2, v2, v4
      0x001d: if-ltz v2, +12
      0x001f: invoke-virtual {v1}, void com.android.cm3.StopWatch.StopTimer() // method@101
      0x0022: iget-object v2, v6, Lcom/android/cm3/BenchmarkAtom; com.android.cm3.BenchmarkUnit.unitAtom // field@3
      0x0024: invoke-interface {v2}, int com.android.cm3.BenchmarkAtom.cleanUp() // method@5
      0x0027: move v2, v0
      0x0028: goto -24
      0x0029: add-int/lit8 v0, v0, #+1
      0x002b: iget-object v2, v6, Lcom/android/cm3/BenchmarkAtom; com.android.cm3.BenchmarkUnit.unitAtom // field@3
      0x002d: invoke-interface {v2}, int com.android.cm3.BenchmarkAtom.execute() // method@7
      0x0030: move-result v2
      0x0031: iput v2, v6, I com.android.cm3.BenchmarkUnit.lastResult // field@0
      0x0033: goto -31
    OatMethodOffsets (offset=0x00004488)
      code_offset: 0x00006151 
      gc_map: (offset=0x000047d4)
    OatQuickMethodHeader (offset=0x00006138)
      mapping_table: (offset=0x0000507a)
      vmap_table: (offset=0x000055ba)
      v2/r5, v6/r6, v65534/r7, v0/r8, v1/r10, v4/r11, v65535/r15
    QuickMethodFrameInfo
      frame_size_in_bytes: 80
      core_spill_mask: 0x00008de0 (r5, r6, r7, r8, r10, r11, r15)
      fp_spill_mask: 0x00000000 
    CODE: (code_offset=0x00006151 size_offset=0x0000614c size=244)...
      0x00006150: f5bd5c00	subs    r12, sp, #8192
      0x00006154: f8dcc000	ldr.w   r12, [r12, #0]
      suspend point dex PC: 0x0000
      GC map objects:  v6 (r6)
      0x00006158: e92d4de0	push    {r5, r6, r7, r8, r10, r11, lr}
      0x0000615c: b08d    	sub     sp, sp, #52
      0x0000615e: 1c07    	mov     r7, r0
      0x00006160: 9000    	str     r0, [sp, #0]
      0x00006162: 1c0e    	mov     r6, r1
      0x00006164: 2200    	movs    r2, #0
      0x00006166: f8d9e124	ldr.w   lr, [r9, #292]  ; pAllocObject
      0x0000616a: 9209    	str     r2, [sp, #36]
      0x0000616c: f04f0800	mov.w   r8, #0
      0x00006170: 1c39    	mov     r1, r7
      0x00006172: 201b    	movs    r0, #27
      0x00006174: 47f0    	blx     lr
      suspend point dex PC: 0x0002
      GC map objects:  v6 (r6)
      0x00006176: 4682    	mov     r10, r0
      0x00006178: 1c38    	mov     r0, r7
      0x0000617a: 68c0    	ldr     r0, [r0, #12]
      0x0000617c: 4651    	mov     r1, r10
      0x0000617e: f8d00190	ldr.w   r0, [r0, #400]
      0x00006182: f8d0e028	ldr.w   lr, [r0, #40]
      0x00006186: 47f0    	blx     lr
      suspend point dex PC: 0x0004
      GC map objects:  v1 (r10), v6 (r6)
      0x00006188: 68b5    	ldr     r5, [r6, #8]
      0x0000618a: f04f0c08	mov.w   r12, #8
      0x0000618e: 2200    	movs    r2, #0
      0x00006190: 1c29    	mov     r1, r5
      0x00006192: 6808    	ldr     r0, [r1, #0]
      suspend point dex PC: 0x0009
      GC map objects:  v1 (r10), v2 (r5), v6 (r6)
      0x00006194: f8d0008c	ldr.w   r0, [r0, #140]
      0x00006198: f8d0e028	ldr.w   lr, [r0, #40]
      0x0000619c: 47f0    	blx     lr
      suspend point dex PC: 0x0009
      GC map objects:  v1 (r10), v2 (r5), v6 (r6)
      0x0000619e: 1c05    	mov     r5, r0
      0x000061a0: b93d    	cbnz    r5, +14 (0x000061b2)
      0x000061a2: 2500    	movs    r5, #0
      0x000061a4: 3c01    	subs    r4, #1
      0x000061a6: f0008049	beq.w   +146 (0x0000623c)
      0x000061aa: 1c28    	mov     r0, r5
      0x000061ac: b00d    	add     sp, sp, #52
      0x000061ae: e8bd8de0	pop     {r5, r6, r7, r8, r10, r11, pc}
      0x000061b2: 1c38    	mov     r0, r7
      0x000061b4: 68c0    	ldr     r0, [r0, #12]
      0x000061b6: 4651    	mov     r1, r10
      0x000061b8: f8d0019c	ldr.w   r0, [r0, #412]
      0x000061bc: f8d0e028	ldr.w   lr, [r0, #40]
      0x000061c0: 47f0    	blx     lr
      suspend point dex PC: 0x0011
      GC map objects:  v1 (r10), v6 (r6)
      0x000061c2: 1c38    	mov     r0, r7
      0x000061c4: 68c0    	ldr     r0, [r0, #12]
      0x000061c6: 4651    	mov     r1, r10
      0x000061c8: f8d00198	ldr.w   r0, [r0, #408]
      0x000061cc: f8d0e028	ldr.w   lr, [r0, #40]
      0x000061d0: 47f0    	blx     lr
      suspend point dex PC: 0x0014
      GC map objects:  v1 (r10), v6 (r6)
      0x000061d2: 68bb    	ldr     r3, [r7, #8]
      0x000061d4: e9cd0108	strd    r0,r1, [sp, #+32]
      0x000061d8: f8d3b1b8	ldr.w   r11, [r3, #440]
      0x000061dc: 46dc    	mov     r12, r11
      0x000061de: ea4f72ec	mov.w   r2, r12, asr #31
      0x000061e2: e9cdc20a	strd    r12,r2, [sp, #+40]
      0x000061e6: 4291    	cmp     r1, r2
      0x000061e8: f2c08019	blt.w   +50 (0x0000621e)
      0x000061ec: f3008003	bgt.w   +6 (0x000061f6)
      0x000061f0: 4560    	cmp     r0, r12
      0x000061f2: f0c08014	bcc.w   +40 (0x0000621e)
      0x000061f6: 1c38    	mov     r0, r7
      0x000061f8: 68c0    	ldr     r0, [r0, #12]
      0x000061fa: 4651    	mov     r1, r10
      0x000061fc: f8d001a0	ldr.w   r0, [r0, #416]
      0x00006200: f8d0e028	ldr.w   lr, [r0, #40]
      0x00006204: 47f0    	blx     lr
      suspend point dex PC: 0x001f
      GC map objects:  v1 (r10), v6 (r6)
      0x00006206: 68b5    	ldr     r5, [r6, #8]
      0x00006208: f04f0c05	mov.w   r12, #5
      0x0000620c: 1c29    	mov     r1, r5
      0x0000620e: 6808    	ldr     r0, [r1, #0]
      suspend point dex PC: 0x0024
      GC map objects:  v1 (r10), v2 (r5), v6 (r6)
      0x00006210: f8d00080	ldr.w   r0, [r0, #128]
      0x00006214: f8d0e028	ldr.w   lr, [r0, #40]
      0x00006218: 47f0    	blx     lr
      suspend point dex PC: 0x0024
      GC map objects:  v1 (r10), v2 (r5), v6 (r6)
      0x0000621a: 4645    	mov     r5, r8
      0x0000621c: e7c2    	b       -124 (0x000061a4)
      0x0000621e: 68b5    	ldr     r5, [r6, #8]
      0x00006220: f1180801	adds    r8, r8, #1
      0x00006224: f04f0c07	mov.w   r12, #7
      0x00006228: 1c29    	mov     r1, r5
      0x0000622a: 6808    	ldr     r0, [r1, #0]
      suspend point dex PC: 0x002d
      GC map objects:  v1 (r10), v2 (r5), v6 (r6)
      0x0000622c: f8d00088	ldr.w   r0, [r0, #136]
      0x00006230: f8d0e028	ldr.w   lr, [r0, #40]
      0x00006234: 47f0    	blx     lr
      suspend point dex PC: 0x002d
      GC map objects:  v1 (r10), v2 (r5), v6 (r6)
      0x00006236: 1c05    	mov     r5, r0
      0x00006238: 60f5    	str     r5, [r6, #12]
      0x0000623a: e7c2    	b       -124 (0x000061c2)
      0x0000623c: f8d9e230	ldr.w   lr, [r9, #560]  ; pTestSuspend
      0x00006240: 47f0    	blx     lr
      suspend point dex PC: 0x0010
      0x00006242: e7b2    	b       -156 (0x000061aa)
  4: void com.android.cm3.BenchmarkUnit.setLocal() (dex_method_idx=17) 1
    DEX CODE:
      0x0000: iget-object v0, v1, Lcom/android/cm3/BenchmarkAtom; com.android.cm3.BenchmarkUnit.unitAtom // field@3
      0x0002: invoke-interface {v0}, void com.android.cm3.BenchmarkAtom.setLocal() // method@9
      0x0005: return-void
    OatMethodOffsets (offset=0x00004490)
      code_offset: 0x00006261 
      gc_map: (offset=0x000047f2)
    OatQuickMethodHeader (offset=0x00006248)
      mapping_table: (offset=0x00005096)
      vmap_table: (offset=0x000055c2)
      v0/r5, v1/r6, v65534/r7, v65535/r15
    QuickMethodFrameInfo
      frame_size_in_bytes: 32
      core_spill_mask: 0x000080e0 (r5, r6, r7, r15)
      fp_spill_mask: 0x00000000 
    CODE: (code_offset=0x00006261 size_offset=0x0000625c size=60)...
      0x00006260: f5bd5c00	subs    r12, sp, #8192
      0x00006264: f8dcc000	ldr.w   r12, [r12, #0]
      suspend point dex PC: 0x0000
      GC map objects:  v1 (r6)
      0x00006268: e92d40e0	push    {r5, r6, r7, lr}
      0x0000626c: b084    	sub     sp, sp, #16
      0x0000626e: 1c07    	mov     r7, r0
      0x00006270: 9000    	str     r0, [sp, #0]
      0x00006272: 1c0e    	mov     r6, r1
      0x00006274: 68b5    	ldr     r5, [r6, #8]
      0x00006276: f04f0c09	mov.w   r12, #9
      0x0000627a: 1c29    	mov     r1, r5
      0x0000627c: 6808    	ldr     r0, [r1, #0]
      suspend point dex PC: 0x0002
      GC map objects:  v0 (r5), v1 (r6)
      0x0000627e: f8d00090	ldr.w   r0, [r0, #144]
      0x00006282: f8d0e028	ldr.w   lr, [r0, #40]
      0x00006286: 47f0    	blx     lr
      suspend point dex PC: 0x0002
      GC map objects:  v0 (r5), v1 (r6)
      0x00006288: 3c01    	subs    r4, #1
      0x0000628a: f0008003	beq.w   +6 (0x00006294)
      0x0000628e: b004    	add     sp, sp, #16
      0x00006290: e8bd80e0	pop     {r5, r6, r7, pc}
      0x00006294: f8d9e230	ldr.w   lr, [r9, #560]  ; pTestSuspend
      0x00006298: 47f0    	blx     lr
      suspend point dex PC: 0x0005
      0x0000629a: e7f8    	b       -16 (0x0000628e)
  5: void com.android.cm3.BenchmarkUnit.setRemote() (dex_method_idx=18) 1
    DEX CODE:
      0x0000: iget-object v0, v1, Lcom/android/cm3/BenchmarkAtom; com.android.cm3.BenchmarkUnit.unitAtom // field@3
      0x0002: invoke-interface {v0}, void com.android.cm3.BenchmarkAtom.setRemote() // method@10
      0x0005: return-void
    OatMethodOffsets (offset=0x00004498)
      code_offset: 0x000062b9 
      gc_map: (offset=0x000047f2)
    OatQuickMethodHeader (offset=0x000062a0)
      mapping_table: (offset=0x00005096)
      vmap_table: (offset=0x000055c2)
      v0/r5, v1/r6, v65534/r7, v65535/r15
    QuickMethodFrameInfo
      frame_size_in_bytes: 32
      core_spill_mask: 0x000080e0 (r5, r6, r7, r15)
      fp_spill_mask: 0x00000000 
    CODE: (code_offset=0x000062b9 size_offset=0x000062b4 size=60)...
      0x000062b8: f5bd5c00	subs    r12, sp, #8192
      0x000062bc: f8dcc000	ldr.w   r12, [r12, #0]
      suspend point dex PC: 0x0000
      GC map objects:  v1 (r6)
      0x000062c0: e92d40e0	push    {r5, r6, r7, lr}
      0x000062c4: b084    	sub     sp, sp, #16
      0x000062c6: 1c07    	mov     r7, r0
      0x000062c8: 9000    	str     r0, [sp, #0]
      0x000062ca: 1c0e    	mov     r6, r1
      0x000062cc: 68b5    	ldr     r5, [r6, #8]
      0x000062ce: f04f0c0a	mov.w   r12, #10
      0x000062d2: 1c29    	mov     r1, r5
      0x000062d4: 6808    	ldr     r0, [r1, #0]
      suspend point dex PC: 0x0002
      GC map objects:  v0 (r5), v1 (r6)
      0x000062d6: f8d00094	ldr.w   r0, [r0, #148]
      0x000062da: f8d0e028	ldr.w   lr, [r0, #40]
      0x000062de: 47f0    	blx     lr
      suspend point dex PC: 0x0002
      GC map objects:  v0 (r5), v1 (r6)
      0x000062e0: 3c01    	subs    r4, #1
      0x000062e2: f0008003	beq.w   +6 (0x000062ec)
      0x000062e6: b004    	add     sp, sp, #16
      0x000062e8: e8bd80e0	pop     {r5, r6, r7, pc}
      0x000062ec: f8d9e230	ldr.w   lr, [r9, #560]  ; pTestSuspend
      0x000062f0: 47f0    	blx     lr
      suspend point dex PC: 0x0005
      0x000062f2: e7f8    	b       -16 (0x000062e6)
  6: int com.android.cm3.BenchmarkUnit.testMilliseconds(int) (dex_method_idx=19) 0
    DEX CODE:
      0x0000: const/4 v4, #+0
      0x0001: const/4 v0, #+0
      0x0002: iget-object v3, v5, Lcom/android/cm3/BenchmarkAtom; com.android.cm3.BenchmarkUnit.unitAtom // field@3
      0x0004: invoke-interface {v3, v4}, boolean com.android.cm3.BenchmarkAtom.initialize(int) // method@8
      0x0007: move-result v3
      0x0008: if-nez v3, +4
      0x000a: move v3, v4
      0x000b: return v3
      0x000c: new-instance v2, com.android.cm3.StopWatch // type@27
      0x000e: invoke-direct {v2}, void com.android.cm3.StopWatch.<init>() // method@97
      0x0011: invoke-virtual {v2}, void com.android.cm3.StopWatch.StartTimer() // method@100
      0x0014: mul-int/lit8 v1, v6, #+3
      0x0016: const/4 v0, #+0
      0x0017: if-gtz v1, +16
      0x0019: invoke-virtual {v2}, void com.android.cm3.StopWatch.StopTimer() // method@101
      0x001c: iget-object v3, v5, Lcom/android/cm3/BenchmarkAtom; com.android.cm3.BenchmarkUnit.unitAtom // field@3
      0x001e: invoke-interface {v3}, int com.android.cm3.BenchmarkAtom.cleanUp() // method@5
      0x0021: invoke-virtual {v2}, long com.android.cm3.StopWatch.Milliseconds() // method@99
      0x0024: move-result-wide v3
      0x0025: long-to-int v3, v3
      0x0026: goto -27
      0x0027: add-int/lit8 v1, v1, #-1
      0x0029: add-int/lit8 v0, v0, #+1
      0x002b: iget-object v3, v5, Lcom/android/cm3/BenchmarkAtom; com.android.cm3.BenchmarkUnit.unitAtom // field@3
      0x002d: invoke-interface {v3}, int com.android.cm3.BenchmarkAtom.execute() // method@7
      0x0030: move-result v3
      0x0031: iput v3, v5, I com.android.cm3.BenchmarkUnit.lastResult // field@0
      0x0033: goto -28
    OatMethodOffsets (offset=0x000044a0)
      code_offset: 0x00006311 
      gc_map: (offset=0x000047fe)
    OatQuickMethodHeader (offset=0x000062f8)
      mapping_table: (offset=0x000050a0)
      vmap_table: (offset=0x000055c7)
      v3/r5, v5/r6, v65534/r7, v1/r8, v0/r10, v2/r11, v65535/r15
    QuickMethodFrameInfo
      frame_size_in_bytes: 64
      core_spill_mask: 0x00008de0 (r5, r6, r7, r8, r10, r11, r15)
      fp_spill_mask: 0x00000000 
    CODE: (code_offset=0x00006311 size_offset=0x0000630c size=236)...
      0x00006310: f5bd5c00	subs    r12, sp, #8192
      0x00006314: f8dcc000	ldr.w   r12, [r12, #0]
      suspend point dex PC: 0x0000
      GC map objects:  v5 (r6)
      0x00006318: e92d4de0	push    {r5, r6, r7, r8, r10, r11, lr}
      0x0000631c: b089    	sub     sp, sp, #36
      0x0000631e: 1c07    	mov     r7, r0
      0x00006320: 9000    	str     r0, [sp, #0]
      0x00006322: 1c0e    	mov     r6, r1
      0x00006324: 9212    	str     r2, [sp, #72]
      0x00006326: 2200    	movs    r2, #0
      0x00006328: 68b5    	ldr     r5, [r6, #8]
      0x0000632a: 9207    	str     r2, [sp, #28]
      0x0000632c: f04f0a00	mov.w   r10, #0
      0x00006330: f04f0c08	mov.w   r12, #8
      0x00006334: 2200    	movs    r2, #0
      0x00006336: 1c29    	mov     r1, r5
      0x00006338: 6808    	ldr     r0, [r1, #0]
      suspend point dex PC: 0x0004
      GC map objects:  v3 (r5), v5 (r6)
      0x0000633a: f8d0008c	ldr.w   r0, [r0, #140]
      0x0000633e: f8d0e028	ldr.w   lr, [r0, #40]
      0x00006342: 47f0    	blx     lr
      suspend point dex PC: 0x0004
      GC map objects:  v3 (r5), v5 (r6)
      0x00006344: 1c05    	mov     r5, r0
      0x00006346: b93d    	cbnz    r5, +14 (0x00006358)
      0x00006348: 2500    	movs    r5, #0
      0x0000634a: 3c01    	subs    r4, #1
      0x0000634c: f0008051	beq.w   +162 (0x000063f2)
      0x00006350: 1c28    	mov     r0, r5
      0x00006352: b009    	add     sp, sp, #36
      0x00006354: e8bd8de0	pop     {r5, r6, r7, r8, r10, r11, pc}
      0x00006358: f8d9e124	ldr.w   lr, [r9, #292]  ; pAllocObject
      0x0000635c: 1c39    	mov     r1, r7
      0x0000635e: 201b    	movs    r0, #27
      0x00006360: 47f0    	blx     lr
      suspend point dex PC: 0x000c
      GC map objects:  v5 (r6)
      0x00006362: 4683    	mov     r11, r0
      0x00006364: 1c38    	mov     r0, r7
      0x00006366: 68c0    	ldr     r0, [r0, #12]
      0x00006368: 4659    	mov     r1, r11
      0x0000636a: f8d00190	ldr.w   r0, [r0, #400]
      0x0000636e: f8d0e028	ldr.w   lr, [r0, #40]
      0x00006372: 47f0    	blx     lr
      suspend point dex PC: 0x000e
      GC map objects:  v2 (r11), v5 (r6)
      0x00006374: 1c38    	mov     r0, r7
      0x00006376: 68c0    	ldr     r0, [r0, #12]
      0x00006378: 4659    	mov     r1, r11
      0x0000637a: f8d0019c	ldr.w   r0, [r0, #412]
      0x0000637e: f8d0e028	ldr.w   lr, [r0, #40]
      0x00006382: 47f0    	blx     lr
      suspend point dex PC: 0x0011
      GC map objects:  v2 (r11), v5 (r6)
      0x00006384: 9b12    	ldr     r3, [sp, #72]
      0x00006386: eb130843	adds.w  r8, r3, r3, lsl #1
      0x0000638a: f04f0a00	mov.w   r10, #0
      0x0000638e: f1b80f00	cmp.w   r8, #0
      0x00006392: dc1d    	bgt     +58 (0x000063d0)
      0x00006394: 1c38    	mov     r0, r7
      0x00006396: 68c0    	ldr     r0, [r0, #12]
      0x00006398: 4659    	mov     r1, r11
      0x0000639a: f8d001a0	ldr.w   r0, [r0, #416]
      0x0000639e: f8d0e028	ldr.w   lr, [r0, #40]
      0x000063a2: 47f0    	blx     lr
      suspend point dex PC: 0x0019
      GC map objects:  v2 (r11), v5 (r6)
      0x000063a4: 68b5    	ldr     r5, [r6, #8]
      0x000063a6: f04f0c05	mov.w   r12, #5
      0x000063aa: 1c29    	mov     r1, r5
      0x000063ac: 6808    	ldr     r0, [r1, #0]
      suspend point dex PC: 0x001e
      GC map objects:  v2 (r11), v3 (r5), v5 (r6)
      0x000063ae: f8d00080	ldr.w   r0, [r0, #128]
      0x000063b2: f8d0e028	ldr.w   lr, [r0, #40]
      0x000063b6: 47f0    	blx     lr
      suspend point dex PC: 0x001e
      GC map objects:  v2 (r11), v3 (r5), v5 (r6)
      0x000063b8: 1c38    	mov     r0, r7
      0x000063ba: 68c0    	ldr     r0, [r0, #12]
      0x000063bc: 4659    	mov     r1, r11
      0x000063be: f8d00198	ldr.w   r0, [r0, #408]
      0x000063c2: f8d0e028	ldr.w   lr, [r0, #40]
      0x000063c6: 47f0    	blx     lr
      suspend point dex PC: 0x0021
      GC map objects:  v2 (r11), v3 (r5), v5 (r6)
      0x000063c8: e9cd0106	strd    r0,r1, [sp, #+24]
      0x000063cc: 1c05    	mov     r5, r0
      0x000063ce: e7bc    	b       -136 (0x0000634a)
      0x000063d0: 68b5    	ldr     r5, [r6, #8]
      0x000063d2: f11838ff	adds    r8, r8, #-1
      0x000063d6: f11a0a01	adds    r10, r10, #1
      0x000063da: f04f0c07	mov.w   r12, #7
      0x000063de: 1c29    	mov     r1, r5
      0x000063e0: 6808    	ldr     r0, [r1, #0]
      suspend point dex PC: 0x002d
      GC map objects:  v2 (r11), v3 (r5), v5 (r6)
      0x000063e2: f8d00088	ldr.w   r0, [r0, #136]
      0x000063e6: f8d0e028	ldr.w   lr, [r0, #40]
      0x000063ea: 47f0    	blx     lr
      suspend point dex PC: 0x002d
      GC map objects:  v2 (r11), v3 (r5), v5 (r6)
      0x000063ec: 1c05    	mov     r5, r0
      0x000063ee: 60f5    	str     r5, [r6, #12]
      0x000063f0: e7cd    	b       -102 (0x0000638e)
      0x000063f2: f8d9e230	ldr.w   lr, [r9, #560]  ; pTestSuspend
      0x000063f6: 47f0    	blx     lr
      suspend point dex PC: 0x000b
      0x000063f8: e7aa    	b       -172 (0x00006350)
      0x000063fa: 0000    	lsls    r0, r0, #0
  7: java.lang.String com.android.cm3.BenchmarkUnit.testName() (dex_method_idx=20) 1
    DEX CODE:
      0x0000: iget-object v0, v1, Lcom/android/cm3/BenchmarkAtom; com.android.cm3.BenchmarkUnit.unitAtom // field@3
      0x0002: invoke-interface {v0}, java.lang.String com.android.cm3.BenchmarkAtom.testName() // method@11
      0x0005: move-result-object v0
      0x0006: return-object v0
    OatMethodOffsets (offset=0x000044a8)
      code_offset: 0x00006419 
      gc_map: (offset=0x0000481c)
    OatQuickMethodHeader (offset=0x00006400)
      mapping_table: (offset=0x000050bc)
      vmap_table: (offset=0x000055c2)
      v0/r5, v1/r6, v65534/r7, v65535/r15
    QuickMethodFrameInfo
      frame_size_in_bytes: 32
      core_spill_mask: 0x000080e0 (r5, r6, r7, r15)
      fp_spill_mask: 0x00000000 
    CODE: (code_offset=0x00006419 size_offset=0x00006414 size=64)...
      0x00006418: f5bd5c00	subs    r12, sp, #8192
      0x0000641c: f8dcc000	ldr.w   r12, [r12, #0]
      suspend point dex PC: 0x0000
      GC map objects:  v1 (r6)
      0x00006420: e92d40e0	push    {r5, r6, r7, lr}
      0x00006424: b084    	sub     sp, sp, #16
      0x00006426: 1c07    	mov     r7, r0
      0x00006428: 9000    	str     r0, [sp, #0]
      0x0000642a: 1c0e    	mov     r6, r1
      0x0000642c: 68b5    	ldr     r5, [r6, #8]
      0x0000642e: f04f0c0b	mov.w   r12, #11
      0x00006432: 1c29    	mov     r1, r5
      0x00006434: 6808    	ldr     r0, [r1, #0]
      suspend point dex PC: 0x0002
      GC map objects:  v0 (r5), v1 (r6)
      0x00006436: f8d00098	ldr.w   r0, [r0, #152]
      0x0000643a: f8d0e028	ldr.w   lr, [r0, #40]
      0x0000643e: 47f0    	blx     lr
      suspend point dex PC: 0x0002
      GC map objects:  v0 (r5), v1 (r6)
      0x00006440: 1c05    	mov     r5, r0
      0x00006442: 3c01    	subs    r4, #1
      0x00006444: f0008004	beq.w   +8 (0x00006450)
      0x00006448: 1c28    	mov     r0, r5
      0x0000644a: b004    	add     sp, sp, #16
      0x0000644c: e8bd80e0	pop     {r5, r6, r7, pc}
      0x00006450: f8d9e230	ldr.w   lr, [r9, #560]  ; pTestSuspend
      0x00006454: 47f0    	blx     lr
      suspend point dex PC: 0x0006
      GC map objects:  v0 (r5)
      0x00006456: e7f7    	b       -18 (0x00006448)
  8: int com.android.cm3.BenchmarkUnit.testScore() (dex_method_idx=21) 0
    DEX CODE:
      0x0000: const/4 v2, #+0
      0x0001: invoke-virtual {v4}, int com.android.cm3.BenchmarkUnit.loopsPerSecond() // method@16
      0x0004: move-result v0
      0x0005: if-nez v0, +5
      0x0007: iput v2, v4, I com.android.cm3.BenchmarkUnit.lastScore // field@1
      0x0009: return v2
      0x000a: invoke-virtual {v4, v0}, int com.android.cm3.BenchmarkUnit.testMilliseconds(int) // method@19
      0x000d: move-result v1
      0x000e: if-eqz v1, +9
      0x0010: iget v2, v4, I com.android.cm3.BenchmarkUnit.magnification // field@2
      0x0012: mul-int/lit8 v3, v0, #+3
      0x0014: mul-int/2addr v2, v3
      0x0015: div-int v1, v2, v1
      0x0017: iput v1, v4, I com.android.cm3.BenchmarkUnit.lastScore // field@1
      0x0019: move v2, v1
      0x001a: goto -17
    OatMethodOffsets (offset=0x000044b0)
      code_offset: 0x00006471 
      gc_map: (offset=0x00004828)
    OatQuickMethodHeader (offset=0x00006458)
      mapping_table: (offset=0x000050c6)
      vmap_table: (offset=0x000055cf)
      v1/r5, v4/r6, v2/r7, v0/r8, v65534/r10, v3/r11, v65535/r15
    QuickMethodFrameInfo
      frame_size_in_bytes: 64
      core_spill_mask: 0x00008de0 (r5, r6, r7, r8, r10, r11, r15)
      fp_spill_mask: 0x00000000 
    CODE: (code_offset=0x00006471 size_offset=0x0000646c size=140)...
      0x00006470: f5bd5c00	subs    r12, sp, #8192
      0x00006474: f8dcc000	ldr.w   r12, [r12, #0]
      suspend point dex PC: 0x0000
      GC map objects:  v4 (r6)
      0x00006478: e92d4de0	push    {r5, r6, r7, r8, r10, r11, lr}
      0x0000647c: b089    	sub     sp, sp, #36
      0x0000647e: 4682    	mov     r10, r0
      0x00006480: 9000    	str     r0, [sp, #0]
      0x00006482: 1c0e    	mov     r6, r1
      0x00006484: 2700    	movs    r7, #0
      0x00006486: 1c31    	mov     r1, r6
      0x00006488: 6808    	ldr     r0, [r1, #0]
      0x0000648a: f8d001a0	ldr.w   r0, [r0, #416]
      0x0000648e: f8d0e028	ldr.w   lr, [r0, #40]
      0x00006492: 47f0    	blx     lr
      suspend point dex PC: 0x0001
      GC map objects:  v4 (r6)
      0x00006494: 4680    	mov     r8, r0
      0x00006496: f1b80f00	cmp.w   r8, #0
      0x0000649a: d107    	bne     +14 (0x000064ac)
      0x0000649c: 6137    	str     r7, [r6, #16]
      0x0000649e: 3c01    	subs    r4, #1
      0x000064a0: f0008020	beq.w   +64 (0x000064e4)
      0x000064a4: 1c38    	mov     r0, r7
      0x000064a6: b009    	add     sp, sp, #36
      0x000064a8: e8bd8de0	pop     {r5, r6, r7, r8, r10, r11, pc}
      0x000064ac: 1c31    	mov     r1, r6
      0x000064ae: 6808    	ldr     r0, [r1, #0]
      0x000064b0: 4642    	mov     r2, r8
      0x000064b2: f8d001ac	ldr.w   r0, [r0, #428]
      0x000064b6: f8d0e028	ldr.w   lr, [r0, #40]
      0x000064ba: 47f0    	blx     lr
      suspend point dex PC: 0x000a
      GC map objects:  v4 (r6)
      0x000064bc: 1c05    	mov     r5, r0
      0x000064be: b15d    	cbz     r5, +22 (0x000064d8)
      0x000064c0: 6977    	ldr     r7, [r6, #20]
      0x000064c2: eb180b48	adds.w  r11, r8, r8, lsl #1
      0x000064c6: f8d9e1e0	ldr.w   lr, [r9, #480]  ; pIdivmod
      0x000064ca: fb07f70b	mul     r7, r7, r11
      0x000064ce: 1c29    	mov     r1, r5
      0x000064d0: 1c38    	mov     r0, r7
      0x000064d2: b159    	cbz     r1, +22 (0x000064ec)
      0x000064d4: 47f0    	blx     lr
      0x000064d6: 1c05    	mov     r5, r0
      0x000064d8: 6135    	str     r5, [r6, #16]
      0x000064da: 1c2f    	mov     r7, r5
      0x000064dc: 3c01    	subs    r4, #1
      0x000064de: f47fafde	bne.w   -68 (0x0000649e)
      0x000064e2: e006    	b       +12 (0x000064f2)
      0x000064e4: f8d9e230	ldr.w   lr, [r9, #560]  ; pTestSuspend
      0x000064e8: 47f0    	blx     lr
      suspend point dex PC: 0x0009
      0x000064ea: e7db    	b       -74 (0x000064a4)
      0x000064ec: f8d9e23c	ldr.w   lr, [r9, #572]  ; pThrowDivZero
      0x000064f0: 47f0    	blx     lr
      suspend point dex PC: 0x0015
      GC map objects:  v4 (r6)
      0x000064f2: f8d9e230	ldr.w   lr, [r9, #560]  ; pTestSuspend
      0x000064f6: 47f0    	blx     lr
      suspend point dex PC: 0x001a
      GC map objects:  v4 (r6)
      0x000064f8: e7d1    	b       -94 (0x0000649e)
      0x000064fa: 0000    	lsls    r0, r0, #0
3: Lcom/android/cm3/CaffeineMarkEmbeddedApp; (offset=0x000044b8) (type_idx=12) (StatusVerified) (OatClassAllCompiled)
  0: void com.android.cm3.CaffeineMarkEmbeddedApp.<init>() (dex_method_idx=22) 65537
    DEX CODE:
      0x0000: invoke-direct {v0}, void android.app.Activity.<init>() // method@0
      0x0003: return-void
    OatMethodOffsets (offset=0x000044bc)
      code_offset: 0x00006519 
      gc_map: (offset=0x00004838)
    OatQuickMethodHeader (offset=0x00006500)
      mapping_table: (offset=0x000050d4)
      vmap_table: (offset=0x000055d7)
      v0/r5, v65534/r6, v65535/r15
    QuickMethodFrameInfo
      frame_size_in_bytes: 32
      core_spill_mask: 0x00008060 (r5, r6, r15)
      fp_spill_mask: 0x00000000 
    CODE: (code_offset=0x00006519 size_offset=0x00006514 size=60)...
      0x00006518: f5bd5c00	subs    r12, sp, #8192
      0x0000651c: f8dcc000	ldr.w   r12, [r12, #0]
      suspend point dex PC: 0x0000
      GC map objects:  v0 (r5)
      0x00006520: e92d4060	push    {r5, r6, lr}
      0x00006524: b085    	sub     sp, sp, #20
      0x00006526: 1c06    	mov     r6, r0
      0x00006528: 9000    	str     r0, [sp, #0]
      0x0000652a: 1c0d    	mov     r5, r1
      0x0000652c: f2461e01	movw    lr, #24833
      0x00006530: f2c72ecf	movt    lr, #29391
      0x00006534: f64f2018	movw    r0, #64024
      0x00006538: f6c670e8	movt    r0, #28648
      0x0000653c: 1c29    	mov     r1, r5
      0x0000653e: 47f0    	blx     lr
      suspend point dex PC: 0x0000
      GC map objects:  v0 (r5)
      0x00006540: 3c01    	subs    r4, #1
      0x00006542: f0008003	beq.w   +6 (0x0000654c)
      0x00006546: b005    	add     sp, sp, #20
      0x00006548: e8bd8060	pop     {r5, r6, pc}
      0x0000654c: f8d9e230	ldr.w   lr, [r9, #560]  ; pTestSuspend
      0x00006550: 47f0    	blx     lr
      suspend point dex PC: 0x0003
      0x00006552: e7f8    	b       -16 (0x00006546)
  1: void com.android.cm3.CaffeineMarkEmbeddedApp.CaffeineMarkEmbeddedApp(java.lang.String[]) (dex_method_idx=23) 1
    DEX CODE:
      0x0000: return-void
    OatMethodOffsets (offset=0x000044c4)
      code_offset: 0x00006571 
      gc_map: (offset=0x00004842)
    OatQuickMethodHeader (offset=0x00006558)
      mapping_table: (offset=0x000050dc)
      vmap_table: (offset=0x000055db)
      
    QuickMethodFrameInfo
      frame_size_in_bytes: 0
      core_spill_mask: 0x00000000 
      fp_spill_mask: 0x00000000 
    CODE: (code_offset=0x00006571 size_offset=0x0000656c size=4)...
      0x00006570: 4770    	bx      lr
      0x00006572: 0000    	lsls    r0, r0, #0
  2: void com.android.cm3.CaffeineMarkEmbeddedApp.onCreate(android.os.Bundle) (dex_method_idx=24) 1
    DEX CODE:
      0x0000: invoke-super {v5, v6}, void android.app.Activity.onCreate(android.os.Bundle) // method@1
      0x0003: new-instance v2, android.widget.TextView // type@8
      0x0005: invoke-direct {v2, v5}, void android.widget.TextView.<init>(android.content.Context) // method@2
      0x0008: const-string v3, "CaffeineMark 3.0 MIDP2.0 CLDC1.1\n\n" // string@11
      0x000a: invoke-virtual {v2, v3}, void android.widget.TextView.setText(java.lang.CharSequence) // method@4
      0x000d: new-instance v0, com.android.cm3.CaffeineMarkEmbeddedBenchmark // type@13
      0x000f: invoke-direct {v0}, void com.android.cm3.CaffeineMarkEmbeddedBenchmark.<init>() // method@27
      0x0012: invoke-static {}, void com.android.cm3.CaffeineMarkEmbeddedBenchmark.setNormalSequence() // method@39
      0x0015: invoke-static {}, void com.android.cm3.CaffeineMarkEmbeddedBenchmark.setAllLocal() // method@36
      0x0018: invoke-virtual {v0}, void com.android.cm3.CaffeineMarkEmbeddedBenchmark.run() // method@35
      0x001b: const/4 v1, #+0
      0x001c: invoke-static {v1}, java.lang.String com.android.cm3.CaffeineMarkEmbeddedBenchmark.getTestName(int) // method@33
      0x001f: move-result-object v3
      0x0020: invoke-virtual {v2, v3}, void android.widget.TextView.append(java.lang.CharSequence) // method@3
      0x0023: new-instance v3, java.lang.StringBuilder // type@41
      0x0025: const-string v4, " score = " // string@2
      0x0027: invoke-direct {v3, v4}, void java.lang.StringBuilder.<init>(java.lang.String) // method@127
      0x002a: invoke-static {v1}, int com.android.cm3.CaffeineMarkEmbeddedBenchmark.getTestResult(int) // method@34
      0x002d: move-result v4
      0x002e: invoke-virtual {v3, v4}, java.lang.StringBuilder java.lang.StringBuilder.append(int) // method@128
      0x0031: move-result-object v3
      0x0032: invoke-virtual {v3}, java.lang.String java.lang.StringBuilder.toString() // method@131
      0x0035: move-result-object v3
      0x0036: invoke-virtual {v2, v3}, void android.widget.TextView.append(java.lang.CharSequence) // method@3
      0x0039: new-instance v3, java.lang.StringBuilder // type@41
      0x003b: const-string v4, " (" // string@1
      0x003d: invoke-direct {v3, v4}, void java.lang.StringBuilder.<init>(java.lang.String) // method@127
      0x0040: invoke-static {v1}, int com.android.cm3.CaffeineMarkEmbeddedBenchmark.getLastResult(int) // method@32
      0x0043: move-result v4
      0x0044: invoke-virtual {v3, v4}, java.lang.StringBuilder java.lang.StringBuilder.append(int) // method@128
      0x0047: move-result-object v3
      0x0048: const-string v4, ")\n" // string@3
      0x004a: invoke-virtual {v3, v4}, java.lang.StringBuilder java.lang.StringBuilder.append(java.lang.String) // method@130
      0x004d: move-result-object v3
      0x004e: invoke-virtual {v3}, java.lang.String java.lang.StringBuilder.toString() // method@131
      0x0051: move-result-object v3
      0x0052: invoke-virtual {v2, v3}, void android.widget.TextView.append(java.lang.CharSequence) // method@3
      0x0055: add-int/lit8 v1, v1, #+1
      0x0057: const/4 v3, #+5
      0x0058: if-le v1, v3, -60
      0x005a: new-instance v3, java.lang.StringBuilder // type@41
      0x005c: const-string v4, "\nOverall score = " // string@0
      0x005e: invoke-direct {v3, v4}, void java.lang.StringBuilder.<init>(java.lang.String) // method@127
      0x0061: invoke-static {}, int com.android.cm3.CaffeineMarkEmbeddedBenchmark.EmbeddedCaffeineMarkScore() // method@28
      0x0064: move-result v4
      0x0065: invoke-virtual {v3, v4}, java.lang.StringBuilder java.lang.StringBuilder.append(int) // method@128
      0x0068: move-result-object v3
      0x0069: invoke-virtual {v3}, java.lang.String java.lang.StringBuilder.toString() // method@131
      0x006c: move-result-object v3
      0x006d: invoke-virtual {v2, v3}, void android.widget.TextView.append(java.lang.CharSequence) // method@3
      0x0070: invoke-virtual {v5, v2}, void com.android.cm3.CaffeineMarkEmbeddedApp.setContentView(android.view.View) // method@25
      0x0073: return-void
    OatMethodOffsets (offset=0x000044cc)
      code_offset: 0x00006591 
      gc_map: (offset=0x00004846)
    OatQuickMethodHeader (offset=0x00006578)
      mapping_table: (offset=0x000050de)
      vmap_table: (offset=0x000055dc)
      v65534/r5, v3/r6, v1/r7, v4/r8, v2/r10, v5/r11, v65535/r15
    QuickMethodFrameInfo
      frame_size_in_bytes: 64
      core_spill_mask: 0x00008de0 (r5, r6, r7, r8, r10, r11, r15)
      fp_spill_mask: 0x00000000 
    CODE: (code_offset=0x00006591 size_offset=0x0000658c size=796)...
      0x00006590: f5bd5c00	subs    r12, sp, #8192
      0x00006594: f8dcc000	ldr.w   r12, [r12, #0]
      suspend point dex PC: 0x0000
      GC map objects:  v5 (r11), v6 ([sp + #72])
      0x00006598: e92d4de0	push    {r5, r6, r7, r8, r10, r11, lr}
      0x0000659c: b089    	sub     sp, sp, #36
      0x0000659e: 1c05    	mov     r5, r0
      0x000065a0: 9000    	str     r0, [sp, #0]
      0x000065a2: 468b    	mov     r11, r1
      0x000065a4: 9212    	str     r2, [sp, #72]
      0x000065a6: f24a1e29	movw    lr, #41257
      0x000065aa: f2c72ecf	movt    lr, #29391
      0x000065ae: f64930a8	movw    r0, #39848
      0x000065b2: 9a12    	ldr     r2, [sp, #72]
      0x000065b4: f6c670e9	movt    r0, #28649
      0x000065b8: 4659    	mov     r1, r11
      0x000065ba: 47f0    	blx     lr
      suspend point dex PC: 0x0000
      GC map objects:  v5 (r11), v6 ([sp + #72])
      0x000065bc: f8d9e128	ldr.w   lr, [r9, #296]  ; pAllocObjectResolved
      0x000065c0: 1c29    	mov     r1, r5
      0x000065c2: f64a5050	movw    r0, #44368
      0x000065c6: f2c70008	movt    r0, #28680
      0x000065ca: 47f0    	blx     lr
      suspend point dex PC: 0x0003
      GC map objects:  v5 (r11), v6 ([sp + #72])
      0x000065cc: 4682    	mov     r10, r0
      0x000065ce: f2404e31	movw    lr, #1073
      0x000065d2: f2c72e73	movt    lr, #29299
      0x000065d6: f64b6040	movw    r0, #48704
      0x000065da: f2c70008	movt    r0, #28680
      0x000065de: 4651    	mov     r1, r10
      0x000065e0: 465a    	mov     r2, r11
      0x000065e2: 47f0    	blx     lr
      suspend point dex PC: 0x0005
      GC map objects:  v2 (r10), v5 (r11), v6 ([sp + #72])
      0x000065e4: 6968    	ldr     r0, [r5, #20]
      0x000065e6: 6b80    	ldr     r0, [r0, #56]
      0x000065e8: 2800    	cmp     r0, #0
      0x000065ea: f000813d	beq.w   +634 (0x00006868)
      0x000065ee: 1c06    	mov     r6, r0
      0x000065f0: f2475ee1	movw    lr, #30177
      0x000065f4: f2c72e74	movt    lr, #29300
      0x000065f8: f2431078	movw    r0, #12664
      0x000065fc: f2c70009	movt    r0, #28681
      0x00006600: 4651    	mov     r1, r10
      0x00006602: 1c32    	mov     r2, r6
      0x00006604: 47f0    	blx     lr
      suspend point dex PC: 0x000a
      GC map objects:  v2 (r10), v3 (r6), v5 (r11), v6 ([sp + #72])
      0x00006606: f8d9e124	ldr.w   lr, [r9, #292]  ; pAllocObject
      0x0000660a: 1c29    	mov     r1, r5
      0x0000660c: 200d    	movs    r0, #13
      0x0000660e: 47f0    	blx     lr
      suspend point dex PC: 0x000d
      GC map objects:  v2 (r10), v3 (r6), v5 (r11), v6 ([sp + #72])
      0x00006610: 9003    	str     r0, [sp, #12]
      0x00006612: 9903    	ldr     r1, [sp, #12]
      0x00006614: 1c28    	mov     r0, r5
      0x00006616: 68c0    	ldr     r0, [r0, #12]
      0x00006618: 6f80    	ldr     r0, [r0, #120]
      0x0000661a: f8d0e028	ldr.w   lr, [r0, #40]
      0x0000661e: 47f0    	blx     lr
      suspend point dex PC: 0x000f
      GC map objects:  v0 ([sp + #12]), v2 (r10), v3 (r6), v5 (r11), v6 ([sp + #72])
      0x00006620: 1c28    	mov     r0, r5
      0x00006622: 68c0    	ldr     r0, [r0, #12]
      0x00006624: f8d000a8	ldr.w   r0, [r0, #168]
      0x00006628: f8d0e028	ldr.w   lr, [r0, #40]
      0x0000662c: 47f0    	blx     lr
      suspend point dex PC: 0x0012
      GC map objects:  v0 ([sp + #12]), v2 (r10), v3 (r6), v5 (r11), v6 ([sp + #72])
      0x0000662e: 1c28    	mov     r0, r5
      0x00006630: 68c0    	ldr     r0, [r0, #12]
      0x00006632: f8d0009c	ldr.w   r0, [r0, #156]
      0x00006636: f8d0e028	ldr.w   lr, [r0, #40]
      0x0000663a: 47f0    	blx     lr
      suspend point dex PC: 0x0015
      GC map objects:  v0 ([sp + #12]), v2 (r10), v3 (r6), v5 (r11), v6 ([sp + #72])
      0x0000663c: 9903    	ldr     r1, [sp, #12]
      0x0000663e: 1c28    	mov     r0, r5
      0x00006640: 68c0    	ldr     r0, [r0, #12]
      0x00006642: f8d00098	ldr.w   r0, [r0, #152]
      0x00006646: f8d0e028	ldr.w   lr, [r0, #40]
      0x0000664a: 47f0    	blx     lr
      suspend point dex PC: 0x0018
      GC map objects:  v0 ([sp + #12]), v2 (r10), v3 (r6), v5 (r11), v6 ([sp + #72])
      0x0000664c: 2700    	movs    r7, #0
      0x0000664e: 1c28    	mov     r0, r5
      0x00006650: 68c0    	ldr     r0, [r0, #12]
      0x00006652: 1c39    	mov     r1, r7
      0x00006654: f8d00090	ldr.w   r0, [r0, #144]
      0x00006658: f8d0e028	ldr.w   lr, [r0, #40]
      0x0000665c: 47f0    	blx     lr
      suspend point dex PC: 0x001c
      GC map objects:  v0 ([sp + #12]), v2 (r10), v5 (r11), v6 ([sp + #72])
      0x0000665e: 1c06    	mov     r6, r0
      0x00006660: f2480eb9	movw    lr, #32953
      0x00006664: f2c72e73	movt    lr, #29299
      0x00006668: f24e40b0	movw    r0, #58544
      0x0000666c: f2c70008	movt    r0, #28680
      0x00006670: 4651    	mov     r1, r10
      0x00006672: 1c32    	mov     r2, r6
      0x00006674: 47f0    	blx     lr
      suspend point dex PC: 0x0020
      GC map objects:  v0 ([sp + #12]), v2 (r10), v3 (r6), v5 (r11), v6 ([sp + #72])
      0x00006676: f8d9e12c	ldr.w   lr, [r9, #300]  ; pAllocObjectInitialized
      0x0000667a: 1c29    	mov     r1, r5
      0x0000667c: f6451050	movw    r0, #22864
      0x00006680: f6c67096	movt    r0, #28566
      0x00006684: 47f0    	blx     lr
      suspend point dex PC: 0x0023
      GC map objects:  v0 ([sp + #12]), v2 (r10), v3 (r6), v5 (r11), v6 ([sp + #72])
      0x00006686: 1c06    	mov     r6, r0
      0x00006688: 6968    	ldr     r0, [r5, #20]
      0x0000668a: 6940    	ldr     r0, [r0, #20]
      0x0000668c: 2800    	cmp     r0, #0
      0x0000668e: f00080f1	beq.w   +482 (0x00006874)
      0x00006692: 4680    	mov     r8, r0
      0x00006694: f64a5eb1	movw    lr, #44465
      0x00006698: f2c71eef	movt    lr, #29167
      0x0000669c: f6455010	movw    r0, #23824
      0x000066a0: f6c67096	movt    r0, #28566
      0x000066a4: 1c31    	mov     r1, r6
      0x000066a6: 4642    	mov     r2, r8
      0x000066a8: 47f0    	blx     lr
      suspend point dex PC: 0x0027
      GC map objects:  v0 ([sp + #12]), v2 (r10), v3 (r6), v4 (r8), v5 (r11), v6 ([sp + #72])
      0x000066aa: 1c28    	mov     r0, r5
      0x000066ac: 68c0    	ldr     r0, [r0, #12]
      0x000066ae: 1c39    	mov     r1, r7
      0x000066b0: f8d00094	ldr.w   r0, [r0, #148]
      0x000066b4: f8d0e028	ldr.w   lr, [r0, #40]
      0x000066b8: 47f0    	blx     lr
      suspend point dex PC: 0x002a
      GC map objects:  v0 ([sp + #12]), v2 (r10), v3 (r6), v4 (r8), v5 (r11), v6 ([sp + #72])
      0x000066ba: 4680    	mov     r8, r0
      0x000066bc: f24b3e29	movw    lr, #45865
      0x000066c0: f2c71eef	movt    lr, #29167
      0x000066c4: f2462078	movw    r0, #25208
      0x000066c8: f6c67096	movt    r0, #28566
      0x000066cc: 1c31    	mov     r1, r6
      0x000066ce: 4642    	mov     r2, r8
      0x000066d0: 47f0    	blx     lr
      suspend point dex PC: 0x002e
      GC map objects:  v0 ([sp + #12]), v2 (r10), v3 (r6), v5 (r11), v6 ([sp + #72])
      0x000066d2: 1c06    	mov     r6, r0
      0x000066d4: f64e0e29	movw    lr, #59433
      0x000066d8: f2c71eef	movt    lr, #29167
      0x000066dc: f64570f8	movw    r0, #24568
      0x000066e0: f6c67096	movt    r0, #28566
      0x000066e4: 1c31    	mov     r1, r6
      0x000066e6: f8d1c000	ldr.w   r12, [r1, #0]
      suspend point dex PC: 0x0032
      GC map objects:  v0 ([sp + #12]), v2 (r10), v3 (r6), v5 (r11), v6 ([sp + #72])
      0x000066ea: 47f0    	blx     lr
      suspend point dex PC: 0x0032
      GC map objects:  v0 ([sp + #12]), v2 (r10), v3 (r6), v5 (r11), v6 ([sp + #72])
      0x000066ec: 1c06    	mov     r6, r0
      0x000066ee: f2480eb9	movw    lr, #32953
      0x000066f2: f2c72e73	movt    lr, #29299
      0x000066f6: f24e40b0	movw    r0, #58544
      0x000066fa: f2c70008	movt    r0, #28680
      0x000066fe: 4651    	mov     r1, r10
      0x00006700: 1c32    	mov     r2, r6
      0x00006702: 47f0    	blx     lr
      suspend point dex PC: 0x0036
      GC map objects:  v0 ([sp + #12]), v2 (r10), v3 (r6), v5 (r11), v6 ([sp + #72])
      0x00006704: f8d9e12c	ldr.w   lr, [r9, #300]  ; pAllocObjectInitialized
      0x00006708: 1c29    	mov     r1, r5
      0x0000670a: f6451050	movw    r0, #22864
      0x0000670e: f6c67096	movt    r0, #28566
      0x00006712: 47f0    	blx     lr
      suspend point dex PC: 0x0039
      GC map objects:  v0 ([sp + #12]), v2 (r10), v3 (r6), v5 (r11), v6 ([sp + #72])
      0x00006714: 1c06    	mov     r6, r0
      0x00006716: 6968    	ldr     r0, [r5, #20]
      0x00006718: 6900    	ldr     r0, [r0, #16]
      0x0000671a: 2800    	cmp     r0, #0
      0x0000671c: f00080b0	beq.w   +352 (0x00006880)
      0x00006720: 4680    	mov     r8, r0
      0x00006722: f64a5eb1	movw    lr, #44465
      0x00006726: f2c71eef	movt    lr, #29167
      0x0000672a: f6455010	movw    r0, #23824
      0x0000672e: f6c67096	movt    r0, #28566
      0x00006732: 1c31    	mov     r1, r6
      0x00006734: 4642    	mov     r2, r8
      0x00006736: 47f0    	blx     lr
      suspend point dex PC: 0x003d
      GC map objects:  v0 ([sp + #12]), v2 (r10), v3 (r6), v4 (r8), v5 (r11), v6 ([sp + #72])
      0x00006738: 1c28    	mov     r0, r5
      0x0000673a: 68c0    	ldr     r0, [r0, #12]
      0x0000673c: 1c39    	mov     r1, r7
      0x0000673e: f8d0008c	ldr.w   r0, [r0, #140]
      0x00006742: f8d0e028	ldr.w   lr, [r0, #40]
      0x00006746: 47f0    	blx     lr
      suspend point dex PC: 0x0040
      GC map objects:  v0 ([sp + #12]), v2 (r10), v3 (r6), v4 (r8), v5 (r11), v6 ([sp + #72])
      0x00006748: 4680    	mov     r8, r0
      0x0000674a: f24b3e29	movw    lr, #45865
      0x0000674e: f2c71eef	movt    lr, #29167
      0x00006752: f2462078	movw    r0, #25208
      0x00006756: f6c67096	movt    r0, #28566
      0x0000675a: 1c31    	mov     r1, r6
      0x0000675c: 4642    	mov     r2, r8
      0x0000675e: 47f0    	blx     lr
      suspend point dex PC: 0x0044
      GC map objects:  v0 ([sp + #12]), v2 (r10), v3 (r6), v5 (r11), v6 ([sp + #72])
      0x00006760: 1c06    	mov     r6, r0
      0x00006762: 6968    	ldr     r0, [r5, #20]
      0x00006764: 6980    	ldr     r0, [r0, #24]
      0x00006766: 2800    	cmp     r0, #0
      0x00006768: f0008090	beq.w   +288 (0x0000688c)
      0x0000676c: 4680    	mov     r8, r0
      0x0000676e: f64d1e39	movw    lr, #55609
      0x00006772: f2c71eef	movt    lr, #29167
      0x00006776: f24630e0	movw    r0, #25568
      0x0000677a: f6c67096	movt    r0, #28566
      0x0000677e: 1c31    	mov     r1, r6
      0x00006780: 4642    	mov     r2, r8
      0x00006782: f8d1c000	ldr.w   r12, [r1, #0]
      suspend point dex PC: 0x004a
      GC map objects:  v0 ([sp + #12]), v2 (r10), v3 (r6), v4 (r8), v5 (r11), v6 ([sp + #72])
      0x00006786: 47f0    	blx     lr
      suspend point dex PC: 0x004a
      GC map objects:  v0 ([sp + #12]), v2 (r10), v3 (r6), v4 (r8), v5 (r11), v6 ([sp + #72])
      0x00006788: 1c06    	mov     r6, r0
      0x0000678a: f64e0e29	movw    lr, #59433
      0x0000678e: f2c71eef	movt    lr, #29167
      0x00006792: f64570f8	movw    r0, #24568
      0x00006796: f6c67096	movt    r0, #28566
      0x0000679a: 1c31    	mov     r1, r6
      0x0000679c: f8d1c000	ldr.w   r12, [r1, #0]
      suspend point dex PC: 0x004e
      GC map objects:  v0 ([sp + #12]), v2 (r10), v3 (r6), v4 (r8), v5 (r11), v6 ([sp + #72])
      0x000067a0: 47f0    	blx     lr
      suspend point dex PC: 0x004e
      GC map objects:  v0 ([sp + #12]), v2 (r10), v3 (r6), v4 (r8), v5 (r11), v6 ([sp + #72])
      0x000067a2: 1c06    	mov     r6, r0
      0x000067a4: f2480eb9	movw    lr, #32953
      0x000067a8: f2c72e73	movt    lr, #29299
      0x000067ac: f24e40b0	movw    r0, #58544
      0x000067b0: f2c70008	movt    r0, #28680
      0x000067b4: 4651    	mov     r1, r10
      0x000067b6: 1c32    	mov     r2, r6
      0x000067b8: 47f0    	blx     lr
      suspend point dex PC: 0x0052
      GC map objects:  v0 ([sp + #12]), v2 (r10), v3 (r6), v4 (r8), v5 (r11), v6 ([sp + #72])
      0x000067ba: 1c7f    	adds    r7, r7, #1
      0x000067bc: 2605    	movs    r6, #5
      0x000067be: 42b7    	cmp     r7, r6
      0x000067c0: f77faf45	ble.w   -374 (0x0000664e)
      0x000067c4: f8d9e12c	ldr.w   lr, [r9, #300]  ; pAllocObjectInitialized
      0x000067c8: 1c29    	mov     r1, r5
      0x000067ca: f6451050	movw    r0, #22864
      0x000067ce: f6c67096	movt    r0, #28566
      0x000067d2: 47f0    	blx     lr
      suspend point dex PC: 0x005a
      GC map objects:  v0 ([sp + #12]), v2 (r10), v4 (r8), v5 (r11), v6 ([sp + #72])
      0x000067d4: 1c06    	mov     r6, r0
      0x000067d6: 6968    	ldr     r0, [r5, #20]
      0x000067d8: 68c0    	ldr     r0, [r0, #12]
      0x000067da: 2800    	cmp     r0, #0
      0x000067dc: d05c    	beq     +184 (0x00006898)
      0x000067de: 4680    	mov     r8, r0
      0x000067e0: f64a5eb1	movw    lr, #44465
      0x000067e4: f2c71eef	movt    lr, #29167
      0x000067e8: f6455010	movw    r0, #23824
      0x000067ec: f6c67096	movt    r0, #28566
      0x000067f0: 1c31    	mov     r1, r6
      0x000067f2: 4642    	mov     r2, r8
      0x000067f4: 47f0    	blx     lr
      suspend point dex PC: 0x005e
      GC map objects:  v0 ([sp + #12]), v2 (r10), v3 (r6), v4 (r8), v5 (r11), v6 ([sp + #72])
      0x000067f6: 1c28    	mov     r0, r5
      0x000067f8: 68c0    	ldr     r0, [r0, #12]
      0x000067fa: 6fc0    	ldr     r0, [r0, #124]
      0x000067fc: f8d0e028	ldr.w   lr, [r0, #40]
      0x00006800: 47f0    	blx     lr
      suspend point dex PC: 0x0061
      GC map objects:  v0 ([sp + #12]), v2 (r10), v3 (r6), v4 (r8), v5 (r11), v6 ([sp + #72])
      0x00006802: 4680    	mov     r8, r0
      0x00006804: f24b3e29	movw    lr, #45865
      0x00006808: f2c71eef	movt    lr, #29167
      0x0000680c: f2462078	movw    r0, #25208
      0x00006810: f6c67096	movt    r0, #28566
      0x00006814: 1c31    	mov     r1, r6
      0x00006816: 4642    	mov     r2, r8
      0x00006818: 47f0    	blx     lr
      suspend point dex PC: 0x0065
      GC map objects:  v0 ([sp + #12]), v2 (r10), v3 (r6), v5 (r11), v6 ([sp + #72])
      0x0000681a: 1c06    	mov     r6, r0
      0x0000681c: f64e0e29	movw    lr, #59433
      0x00006820: f2c71eef	movt    lr, #29167
      0x00006824: f64570f8	movw    r0, #24568
      0x00006828: f6c67096	movt    r0, #28566
      0x0000682c: 1c31    	mov     r1, r6
      0x0000682e: f8d1c000	ldr.w   r12, [r1, #0]
      suspend point dex PC: 0x0069
      GC map objects:  v0 ([sp + #12]), v2 (r10), v3 (r6), v5 (r11), v6 ([sp + #72])
      0x00006832: 47f0    	blx     lr
      suspend point dex PC: 0x0069
      GC map objects:  v0 ([sp + #12]), v2 (r10), v3 (r6), v5 (r11), v6 ([sp + #72])
      0x00006834: 1c06    	mov     r6, r0
      0x00006836: f2480eb9	movw    lr, #32953
      0x0000683a: f2c72e73	movt    lr, #29299
      0x0000683e: f24e40b0	movw    r0, #58544
      0x00006842: f2c70008	movt    r0, #28680
      0x00006846: 4651    	mov     r1, r10
      0x00006848: 1c32    	mov     r2, r6
      0x0000684a: 47f0    	blx     lr
      suspend point dex PC: 0x006d
      GC map objects:  v0 ([sp + #12]), v2 (r10), v3 (r6), v5 (r11), v6 ([sp + #72])
      0x0000684c: 4659    	mov     r1, r11
      0x0000684e: 6808    	ldr     r0, [r1, #0]
      0x00006850: 4652    	mov     r2, r10
      0x00006852: f8d00664	ldr.w   r0, [r0, #1636]
      0x00006856: f8d0e028	ldr.w   lr, [r0, #40]
      0x0000685a: 47f0    	blx     lr
      suspend point dex PC: 0x0070
      GC map objects:  v0 ([sp + #12]), v2 (r10), v3 (r6), v5 (r11), v6 ([sp + #72])
      0x0000685c: 3c01    	subs    r4, #1
      0x0000685e: f0008021	beq.w   +66 (0x000068a4)
      0x00006862: b009    	add     sp, sp, #36
      0x00006864: e8bd8de0	pop     {r5, r6, r7, r8, r10, r11, pc}
      0x00006868: f8d9e150	ldr.w   lr, [r9, #336]  ; pResolveString
      0x0000686c: 1c28    	mov     r0, r5
      0x0000686e: 210b    	movs    r1, #11
      0x00006870: 47f0    	blx     lr
      suspend point dex PC: 0x0008
      GC map objects:  v2 (r10), v5 (r11), v6 ([sp + #72])
      0x00006872: e6bc    	b       -648 (0x000065ee)
      0x00006874: f8d9e150	ldr.w   lr, [r9, #336]  ; pResolveString
      0x00006878: 1c28    	mov     r0, r5
      0x0000687a: 2102    	movs    r1, #2
      0x0000687c: 47f0    	blx     lr
      suspend point dex PC: 0x0025
      GC map objects:  v0 ([sp + #12]), v2 (r10), v3 (r6), v5 (r11), v6 ([sp + #72])
      0x0000687e: e708    	b       -496 (0x00006692)
      0x00006880: f8d9e150	ldr.w   lr, [r9, #336]  ; pResolveString
      0x00006884: 1c28    	mov     r0, r5
      0x00006886: 2101    	movs    r1, #1
      0x00006888: 47f0    	blx     lr
      suspend point dex PC: 0x003b
      GC map objects:  v0 ([sp + #12]), v2 (r10), v3 (r6), v5 (r11), v6 ([sp + #72])
      0x0000688a: e749    	b       -366 (0x00006720)
      0x0000688c: f8d9e150	ldr.w   lr, [r9, #336]  ; pResolveString
      0x00006890: 1c28    	mov     r0, r5
      0x00006892: 2103    	movs    r1, #3
      0x00006894: 47f0    	blx     lr
      suspend point dex PC: 0x0048
      GC map objects:  v0 ([sp + #12]), v2 (r10), v3 (r6), v5 (r11), v6 ([sp + #72])
      0x00006896: e769    	b       -302 (0x0000676c)
      0x00006898: f8d9e150	ldr.w   lr, [r9, #336]  ; pResolveString
      0x0000689c: 1c28    	mov     r0, r5
      0x0000689e: 2100    	movs    r1, #0
      0x000068a0: 47f0    	blx     lr
      suspend point dex PC: 0x005c
      GC map objects:  v0 ([sp + #12]), v2 (r10), v3 (r6), v4 (r8), v5 (r11), v6 ([sp + #72])
      0x000068a2: e79c    	b       -200 (0x000067de)
      0x000068a4: f8d9e230	ldr.w   lr, [r9, #560]  ; pTestSuspend
      0x000068a8: 47f0    	blx     lr
      suspend point dex PC: 0x0073
      0x000068aa: e7da    	b       -76 (0x00006862)
4: Lcom/android/cm3/CaffeineMarkEmbeddedBenchmark; (offset=0x000044d4) (type_idx=13) (StatusVerified) (OatClassSomeCompiled)
  0: void com.android.cm3.CaffeineMarkEmbeddedBenchmark.<clinit>() (dex_method_idx=26) 65544
    DEX CODE:
      0x0000: new-instance v0, java.util.Vector // type@46
      0x0002: invoke-direct {v0}, void java.util.Vector.<init>() // method@138
      0x0005: sput-object v0, Ljava/util/Vector; com.android.cm3.CaffeineMarkEmbeddedBenchmark.testSequence // field@17
      0x0007: new-instance v0, java.util.Vector // type@46
      0x0009: invoke-direct {v0}, void java.util.Vector.<init>() // method@138
      0x000c: sput-object v0, Ljava/util/Vector; com.android.cm3.CaffeineMarkEmbeddedBenchmark.testResults // field@16
      0x000e: return-void
    OatMethodOffsets (offset=0x00000000)
      code_offset: 0x00000000 
      gc_map: (offset=0x00000000)
    OatQuickMethodHeader (offset=0x00000000)
      mapping_table: (offset=0x00000000)
      vmap_table: (offset=0x00000000)
    QuickMethodFrameInfo
      frame_size_in_bytes: 0
      core_spill_mask: 0x00000000 
      fp_spill_mask: 0x00000000 
    CODE: (code_offset=0x00000000 size_offset=0x00000000 size=0)
      NO CODE!
  1: void com.android.cm3.CaffeineMarkEmbeddedBenchmark.<init>() (dex_method_idx=27) 65537
    DEX CODE:
      0x0000: invoke-direct {v0}, void java.lang.Thread.<init>() // method@133
      0x0003: return-void
    OatMethodOffsets (offset=0x000044e0)
      code_offset: 0x000068c9 
      gc_map: (offset=0x00004838)
    OatQuickMethodHeader (offset=0x000068b0)
      mapping_table: (offset=0x000050d4)
      vmap_table: (offset=0x000055d7)
      v0/r5, v65534/r6, v65535/r15
    QuickMethodFrameInfo
      frame_size_in_bytes: 32
      core_spill_mask: 0x00008060 (r5, r6, r15)
      fp_spill_mask: 0x00000000 
    CODE: (code_offset=0x000068c9 size_offset=0x000068c4 size=60)...
      0x000068c8: f5bd5c00	subs    r12, sp, #8192
      0x000068cc: f8dcc000	ldr.w   r12, [r12, #0]
      suspend point dex PC: 0x0000
      GC map objects:  v0 (r5)
      0x000068d0: e92d4060	push    {r5, r6, lr}
      0x000068d4: b085    	sub     sp, sp, #20
      0x000068d6: 1c06    	mov     r6, r0
      0x000068d8: 9000    	str     r0, [sp, #0]
      0x000068da: 1c0d    	mov     r5, r1
      0x000068dc: f24b2eb1	movw    lr, #45745
      0x000068e0: f2c71eee	movt    lr, #29166
      0x000068e4: f24c1070	movw    r0, #49520
      0x000068e8: f6c67096	movt    r0, #28566
      0x000068ec: 1c29    	mov     r1, r5
      0x000068ee: 47f0    	blx     lr
      suspend point dex PC: 0x0000
      GC map objects:  v0 (r5)
      0x000068f0: 3c01    	subs    r4, #1
      0x000068f2: f0008003	beq.w   +6 (0x000068fc)
      0x000068f6: b005    	add     sp, sp, #20
      0x000068f8: e8bd8060	pop     {r5, r6, pc}
      0x000068fc: f8d9e230	ldr.w   lr, [r9, #560]  ; pTestSuspend
      0x00006900: 47f0    	blx     lr
      suspend point dex PC: 0x0003
      0x00006902: e7f8    	b       -16 (0x000068f6)
  2: int com.android.cm3.CaffeineMarkEmbeddedBenchmark.EmbeddedCaffeineMarkScore() (dex_method_idx=28) 9
    DEX CODE:
      0x0000: const/4 v8, #+0
      0x0001: const-wide/16 v0, #+0
      0x0003: const-wide/16 v2, #+0
      0x0005: sget-boolean  v6, Z com.android.cm3.CaffeineMarkEmbeddedBenchmark.isComplete // field@11
      0x0007: if-eqz v6, +68
      0x0009: sget-boolean  v6, Z com.android.cm3.CaffeineMarkEmbeddedBenchmark.isNormalSequence // field@14
      0x000b: if-nez v6, +6
      0x000d: sget-boolean  v6, Z com.android.cm3.CaffeineMarkEmbeddedBenchmark.isEmbeddedSequence // field@12
      0x000f: if-eqz v6, +60
      0x0011: const/4 v4, #+0
      0x0012: sget-object  v6, Ljava/util/Vector; com.android.cm3.CaffeineMarkEmbeddedBenchmark.testResults // field@16
      0x0014: invoke-virtual {v6, v4}, java.lang.Object java.util.Vector.elementAt(int) // method@140
      0x0017: move-result-object v5
      0x0018: check-cast v5, java.lang.Integer // type@36
      0x001a: invoke-virtual {v5}, int java.lang.Integer.intValue() // method@115
      0x001d: move-result v6
      0x001e: if-eqz v6, +41
      0x0020: const-wide/high16 v6, #long +4607182418800017408 // 0x3ff0000000000000
      0x0022: add-double/2addr v2, v6
      0x0023: invoke-virtual {v5}, float java.lang.Integer.floatValue() // method@114
      0x0026: move-result v6
      0x0027: float-to-double v6, v6
      0x0028: invoke-static {v6, v7}, double java.lang.Math.log(double) // method@118
      0x002b: move-result-wide v6
      0x002c: add-double/2addr v0, v6
      0x002d: add-int/lit8 v4, v4, #+1
      0x002f: const/4 v6, #+5
      0x0030: if-le v4, v6, -30
      0x0032: const-wide/high16 v6, #long +4602678819172646912 // 0x3fe0000000000000
      0x0034: cmpl-double v6, v2, v6
      0x0036: if-lez v6, +19
      0x0038: div-double/2addr v0, v2
      0x0039: new-instance v6, java.lang.Double // type@35
      0x003b: invoke-static {v0, v1}, double java.lang.Math.exp(double) // method@117
      0x003e: move-result-wide v7
      0x003f: invoke-direct {v6, v7, v8}, void java.lang.Double.<init>(double) // method@111
      0x0042: invoke-virtual {v6}, int java.lang.Double.intValue() // method@112
      0x0045: move-result v6
      0x0046: return v6
      0x0047: move v6, v8
      0x0048: goto -2
      0x0049: move v6, v8
      0x004a: goto -4
      0x004b: move v6, v8
      0x004c: goto -6
    OatMethodOffsets (offset=0x000044e8)
      code_offset: 0x00006921 
      gc_map: (offset=0x000048c8)
    OatQuickMethodHeader (offset=0x00006908)
      mapping_table: (offset=0x00005135)
      vmap_table: (offset=0x000055e4)
      v65534/r5, v4/r6, v5/r7, v6/r8, v65535/r15, v6/fr16, v7/fr17, v0/fr18, v1/fr19, v2/fr20, v3/fr21
    QuickMethodFrameInfo
      frame_size_in_bytes: 112
      core_spill_mask: 0x000081e0 (r5, r6, r7, r8, r15)
      fp_spill_mask: 0x003f0000 (fr16, fr17, fr18, fr19, fr20, fr21)
    CODE: (code_offset=0x00006921 size_offset=0x0000691c size=464)...
      0x00006920: f5bd5c00	subs    r12, sp, #8192
      0x00006924: f8dcc000	ldr.w   r12, [r12, #0]
      suspend point dex PC: 0x0000
      0x00006928: e92d41e0	push    {r5, r6, r7, r8, lr}
      0x0000692c: ed2d8a06	vpush.f32 {s16-s21}
      0x00006930: b091    	sub     sp, sp, #68
      0x00006932: 1c05    	mov     r5, r0
      0x00006934: 9000    	str     r0, [sp, #0]
      0x00006936: 2200    	movs    r2, #0
      0x00006938: 920f    	str     r2, [sp, #60]
      0x0000693a: eeb09b00	vmov.f64 d9, 0x4000000000000000
      0x0000693e: ee399b49	vsub.f64 d9, d9, d9
      0x00006942: 68ab    	ldr     r3, [r5, #8]
      0x00006944: eeb0ab00	vmov.f64 d10, 0x4000000000000000
      0x00006948: ee3aab4a	vsub.f64 d10, d10, d10
      0x0000694c: f8d38248	ldr.w   r8, [r3, #584]
      0x00006950: f1b80f00	cmp.w   r8, #0
      0x00006954: f00080ab	beq.w   +342 (0x00006aae)
      0x00006958: f8d5c008	ldr.w   r12, [r5, #8]
      0x0000695c: f8dc8254	ldr.w   r8, [r12, #596]
      0x00006960: f1b80f00	cmp.w   r8, #0
      0x00006964: d106    	bne     +12 (0x00006974)
      0x00006966: 68a8    	ldr     r0, [r5, #8]
      0x00006968: f8d0824c	ldr.w   r8, [r0, #588]
      0x0000696c: f1b80f00	cmp.w   r8, #0
      0x00006970: f000809d	beq.w   +314 (0x00006aae)
      0x00006974: 2600    	movs    r6, #0
      0x00006976: 68a9    	ldr     r1, [r5, #8]
      0x00006978: f8d18228	ldr.w   r8, [r1, #552]
      0x0000697c: 4641    	mov     r1, r8
      0x0000697e: 1c32    	mov     r2, r6
      0x00006980: 6808    	ldr     r0, [r1, #0]
      suspend point dex PC: 0x0014
      GC map objects:  v6 (r8)
      0x00006982: f8d00208	ldr.w   r0, [r0, #520]
      0x00006986: f8d0e028	ldr.w   lr, [r0, #40]
      0x0000698a: 47f0    	blx     lr
      suspend point dex PC: 0x0014
      GC map objects:  v6 (r8)
      0x0000698c: 1c07    	mov     r7, r0
      0x0000698e: 1c29    	mov     r1, r5
      0x00006990: 690a    	ldr     r2, [r1, #16]
      0x00006992: f8d2209c	ldr.w   r2, [r2, #156]
      0x00006996: 2a00    	cmp     r2, #0
      0x00006998: f000808f	beq.w   +286 (0x00006aba)
      0x0000699c: 1c38    	mov     r0, r7
      0x0000699e: b118    	cbz     r0, +6 (0x000069a8)
      0x000069a0: 6801    	ldr     r1, [r0, #0]
      0x000069a2: 4291    	cmp     r1, r2
      0x000069a4: f040808f	bne.w   +286 (0x00006ac6)
      0x000069a8: f2426e99	movw    lr, #9881
      0x000069ac: f2c71ee8	movt    lr, #29160
      0x000069b0: f6492058	movw    r0, #39512
      0x000069b4: f6c67095	movt    r0, #28565
      0x000069b8: 1c39    	mov     r1, r7
      0x000069ba: f8d1c000	ldr.w   r12, [r1, #0]
      suspend point dex PC: 0x001a
      GC map objects:  v5 (r7), v6 (r8)
      0x000069be: 47f0    	blx     lr
      suspend point dex PC: 0x001a
      GC map objects:  v5 (r7), v6 (r8)
      0x000069c0: 4680    	mov     r8, r0
      0x000069c2: f1b80f00	cmp.w   r8, #0
      0x000069c6: d06c    	beq     +216 (0x00006aa2)
      0x000069c8: eeb78b00	vmov.f64 d8, 0x3ff0000000000000
      0x000069cc: ee3aab08	vadd.f64 d10, d10, d8
      0x000069d0: f6441ef1	movw    lr, #18929
      0x000069d4: f2c71eed	movt    lr, #29165
      0x000069d8: f64910c8	movw    r0, #39368
      0x000069dc: f6c67095	movt    r0, #28565
      0x000069e0: 1c39    	mov     r1, r7
      0x000069e2: 47f0    	blx     lr
      suspend point dex PC: 0x0023
      GC map objects:  v5 (r7)
      0x000069e4: ee080a10	vmov.f32 s16, r0
      0x000069e8: eeb78ac8	vcvt.f32.f64 s16, d8
      0x000069ec: f64f6e69	movw    lr, #65129
      0x000069f0: f2c71eed	movt    lr, #29165
      0x000069f4: f64c00e0	movw    r0, #51424
      0x000069f8: f6c67095	movt    r0, #28565
      0x000069fc: ec521b18	vmov.f64 r1, r2, d8
      0x00006a00: 47f0    	blx     lr
      suspend point dex PC: 0x0028
      GC map objects:  v5 (r7)
      0x00006a02: ec410b18	vmov.f64 d8, r0, r1
      0x00006a06: ee399b08	vadd.f64 d9, d9, d8
      0x00006a0a: 1c76    	adds    r6, r6, #1
      0x00006a0c: f04f0805	mov.w   r8, #5
      0x00006a10: 4546    	cmp     r6, r8
      0x00006a12: f77fafb0	ble.w   -160 (0x00006976)
      0x00006a16: eeb68b00	vmov.f64 d8, 0x3fe0000000000000
      0x00006a1a: eeb4ab48	vcmp.f64 d10, d8
      0x00006a1e: eef1fa10	vmrs    APSR_nzcv, FPSCR
      0x00006a22: f3408038	ble.w   +112 (0x00006a96)
      0x00006a26: f8d9e12c	ldr.w   lr, [r9, #300]  ; pAllocObjectInitialized
      0x00006a2a: ee899b0a	vdiv.f64 d9, d9, d10
      0x00006a2e: 1c29    	mov     r1, r5
      0x00006a30: f2451060	movw    r0, #20832
      0x00006a34: f6c67095	movt    r0, #28565
      0x00006a38: 47f0    	blx     lr
      suspend point dex PC: 0x0039
      GC map objects:  v5 (r7)
      0x00006a3a: 4680    	mov     r8, r0
      0x00006a3c: f64f6e69	movw    lr, #65129
      0x00006a40: f2c71eed	movt    lr, #29165
      0x00006a44: f24c7030	movw    r0, #50992
      0x00006a48: f6c67095	movt    r0, #28565
      0x00006a4c: ec521b19	vmov.f64 r1, r2, d9
      0x00006a50: 47f0    	blx     lr
      suspend point dex PC: 0x003b
      GC map objects:  v5 (r7), v6 (r8)
      0x00006a52: e9cd010e	strd    r0,r1, [sp, #+56]
      0x00006a56: f64f3eb9	movw    lr, #64441
      0x00006a5a: f2c71eed	movt    lr, #29165
      0x00006a5e: f2454028	movw    r0, #21544
      0x00006a62: f6c67095	movt    r0, #28565
      0x00006a66: 4641    	mov     r1, r8
      0x00006a68: e9dd230e	ldrd    r2,r3, [sp, #+56]
      0x00006a6c: 47f0    	blx     lr
      suspend point dex PC: 0x003f
      GC map objects:  v5 (r7), v6 (r8)
      0x00006a6e: f6401ec9	movw    lr, #2505
      0x00006a72: f2c71eee	movt    lr, #29166
      0x00006a76: f64540b0	movw    r0, #23728
      0x00006a7a: f6c67095	movt    r0, #28565
      0x00006a7e: 4641    	mov     r1, r8
      0x00006a80: 47f0    	blx     lr
      suspend point dex PC: 0x0042
      GC map objects:  v5 (r7), v6 (r8)
      0x00006a82: 4680    	mov     r8, r0
      0x00006a84: 3c01    	subs    r4, #1
      0x00006a86: f0008023	beq.w   +70 (0x00006ad0)
      0x00006a8a: 4640    	mov     r0, r8
      0x00006a8c: b011    	add     sp, sp, #68
      0x00006a8e: ecbd8a06	vpop.f32 {s16-s21}
      0x00006a92: e8bd81e0	pop     {r5, r6, r7, r8, pc}
      0x00006a96: f04f0800	mov.w   r8, #0
      0x00006a9a: 3c01    	subs    r4, #1
      0x00006a9c: f47faff2	bne.w   -28 (0x00006a84)
      0x00006aa0: e01a    	b       +52 (0x00006ad8)
      0x00006aa2: f04f0800	mov.w   r8, #0
      0x00006aa6: 3c01    	subs    r4, #1
      0x00006aa8: f47fafec	bne.w   -40 (0x00006a84)
      0x00006aac: e018    	b       +48 (0x00006ae0)
      0x00006aae: f04f0800	mov.w   r8, #0
      0x00006ab2: 3c01    	subs    r4, #1
      0x00006ab4: f47fafe6	bne.w   -52 (0x00006a84)
      0x00006ab8: e016    	b       +44 (0x00006ae8)
      0x00006aba: f8d9e14c	ldr.w   lr, [r9, #332]  ; pInitializeType
      0x00006abe: 2024    	movs    r0, #36
      0x00006ac0: 47f0    	blx     lr
      suspend point dex PC: 0x0018
      GC map objects:  v5 (r7), v6 (r8)
      0x00006ac2: 1c02    	mov     r2, r0
      0x00006ac4: e76a    	b       -300 (0x0000699c)
      0x00006ac6: f8d9e140	ldr.w   lr, [r9, #320]  ; pCheckCast
      0x00006aca: 1c10    	mov     r0, r2
      0x00006acc: 47f0    	blx     lr
      suspend point dex PC: 0x0018
      GC map objects:  v5 (r7), v6 (r8)
      0x00006ace: e76b    	b       -298 (0x000069a8)
      0x00006ad0: f8d9e230	ldr.w   lr, [r9, #560]  ; pTestSuspend
      0x00006ad4: 47f0    	blx     lr
      suspend point dex PC: 0x0046
      0x00006ad6: e7d8    	b       -80 (0x00006a8a)
      0x00006ad8: f8d9e230	ldr.w   lr, [r9, #560]  ; pTestSuspend
      0x00006adc: 47f0    	blx     lr
      suspend point dex PC: 0x004a
      GC map objects:  v5 (r7)
      0x00006ade: e7d1    	b       -94 (0x00006a84)
      0x00006ae0: f8d9e230	ldr.w   lr, [r9, #560]  ; pTestSuspend
      0x00006ae4: 47f0    	blx     lr
      suspend point dex PC: 0x0048
      GC map objects:  v5 (r7)
      0x00006ae6: e7cd    	b       -102 (0x00006a84)
      0x00006ae8: f8d9e230	ldr.w   lr, [r9, #560]  ; pTestSuspend
      0x00006aec: 47f0    	blx     lr
      suspend point dex PC: 0x004c
      0x00006aee: e7c9    	b       -110 (0x00006a84)
  3: void com.android.cm3.CaffeineMarkEmbeddedBenchmark.addTest(int) (dex_method_idx=29) 9
    DEX CODE:
      0x0000: const/4 v3, #+0
      0x0001: sput-boolean v3, Z com.android.cm3.CaffeineMarkEmbeddedBenchmark.isNormalSequence // field@14
      0x0003: sput-boolean v3, Z com.android.cm3.CaffeineMarkEmbeddedBenchmark.isComplete // field@11
      0x0005: packed-switch v4, +163
      0x0008: return-void
      0x0009: sget-object  v0, Ljava/util/Vector; com.android.cm3.CaffeineMarkEmbeddedBenchmark.testSequence // field@17
      0x000b: new-instance v1, com.android.cm3.BenchmarkUnit // type@11
      0x000d: new-instance v2, com.android.cm3.SieveAtom // type@26
      0x000f: invoke-direct {v2}, void com.android.cm3.SieveAtom.<init>() // method@89
      0x0012: invoke-direct {v1, v2}, void com.android.cm3.BenchmarkUnit.<init>(com.android.cm3.BenchmarkAtom) // method@14
      0x0015: invoke-virtual {v0, v1}, void java.util.Vector.addElement(java.lang.Object) // method@139
      0x0018: sget-object  v0, Ljava/util/Vector; com.android.cm3.CaffeineMarkEmbeddedBenchmark.testResults // field@16
      0x001a: new-instance v1, java.lang.Integer // type@36
      0x001c: invoke-direct {v1, v3}, void java.lang.Integer.<init>(int) // method@113
      0x001f: invoke-virtual {v0, v1}, void java.util.Vector.addElement(java.lang.Object) // method@139
      0x0022: goto -26
      0x0023: sget-object  v0, Ljava/util/Vector; com.android.cm3.CaffeineMarkEmbeddedBenchmark.testSequence // field@17
      0x0025: new-instance v1, com.android.cm3.BenchmarkUnit // type@11
      0x0027: new-instance v2, com.android.cm3.LoopAtom // type@19
      0x0029: invoke-direct {v2}, void com.android.cm3.LoopAtom.<init>() // method@66
      0x002c: invoke-direct {v1, v2}, void com.android.cm3.BenchmarkUnit.<init>(com.android.cm3.BenchmarkAtom) // method@14
      0x002f: invoke-virtual {v0, v1}, void java.util.Vector.addElement(java.lang.Object) // method@139
      0x0032: sget-object  v0, Ljava/util/Vector; com.android.cm3.CaffeineMarkEmbeddedBenchmark.testResults // field@16
      0x0034: new-instance v1, java.lang.Integer // type@36
      0x0036: invoke-direct {v1, v3}, void java.lang.Integer.<init>(int) // method@113
      0x0039: invoke-virtual {v0, v1}, void java.util.Vector.addElement(java.lang.Object) // method@139
      0x003c: goto -52
      0x003d: sget-object  v0, Ljava/util/Vector; com.android.cm3.CaffeineMarkEmbeddedBenchmark.testSequence // field@17
      0x003f: new-instance v1, com.android.cm3.BenchmarkUnit // type@11
      0x0041: new-instance v2, com.android.cm3.LogicAtom // type@18
      0x0043: invoke-direct {v2}, void com.android.cm3.LogicAtom.<init>() // method@58
      0x0046: invoke-direct {v1, v2}, void com.android.cm3.BenchmarkUnit.<init>(com.android.cm3.BenchmarkAtom) // method@14
      0x0049: invoke-virtual {v0, v1}, void java.util.Vector.addElement(java.lang.Object) // method@139
      0x004c: sget-object  v0, Ljava/util/Vector; com.android.cm3.CaffeineMarkEmbeddedBenchmark.testResults // field@16
      0x004e: new-instance v1, java.lang.Integer // type@36
      0x0050: invoke-direct {v1, v3}, void java.lang.Integer.<init>(int) // method@113
      0x0053: invoke-virtual {v0, v1}, void java.util.Vector.addElement(java.lang.Object) // method@139
      0x0056: goto -78
      0x0057: sget-object  v0, Ljava/util/Vector; com.android.cm3.CaffeineMarkEmbeddedBenchmark.testSequence // field@17
      0x0059: new-instance v1, com.android.cm3.BenchmarkUnit // type@11
      0x005b: new-instance v2, com.android.cm3.StringAtom // type@28
      0x005d: invoke-direct {v2}, void com.android.cm3.StringAtom.<init>() // method@102
      0x0060: invoke-direct {v1, v2}, void com.android.cm3.BenchmarkUnit.<init>(com.android.cm3.BenchmarkAtom) // method@14
      0x0063: invoke-virtual {v0, v1}, void java.util.Vector.addElement(java.lang.Object) // method@139
      0x0066: sget-object  v0, Ljava/util/Vector; com.android.cm3.CaffeineMarkEmbeddedBenchmark.testResults // field@16
      0x0068: new-instance v1, java.lang.Integer // type@36
      0x006a: invoke-direct {v1, v3}, void java.lang.Integer.<init>(int) // method@113
      0x006d: invoke-virtual {v0, v1}, void java.util.Vector.addElement(java.lang.Object) // method@139
      0x0070: goto -104
      0x0071: sget-object  v0, Ljava/util/Vector; com.android.cm3.CaffeineMarkEmbeddedBenchmark.testSequence // field@17
      0x0073: new-instance v1, com.android.cm3.BenchmarkUnit // type@11
      0x0075: new-instance v2, com.android.cm3.FloatAtom // type@17
      0x0077: invoke-direct {v2}, void com.android.cm3.FloatAtom.<init>() // method@50
      0x007a: invoke-direct {v1, v2}, void com.android.cm3.BenchmarkUnit.<init>(com.android.cm3.BenchmarkAtom) // method@14
      0x007d: invoke-virtual {v0, v1}, void java.util.Vector.addElement(java.lang.Object) // method@139
      0x0080: sget-object  v0, Ljava/util/Vector; com.android.cm3.CaffeineMarkEmbeddedBenchmark.testResults // field@16
      0x0082: new-instance v1, java.lang.Integer // type@36
      0x0084: invoke-direct {v1, v3}, void java.lang.Integer.<init>(int) // method@113
      0x0087: invoke-virtual {v0, v1}, void java.util.Vector.addElement(java.lang.Object) // method@139
      0x008a: goto/16 -130
      0x008c: sget-object  v0, Ljava/util/Vector; com.android.cm3.CaffeineMarkEmbeddedBenchmark.testSequence // field@17
      0x008e: new-instance v1, com.android.cm3.BenchmarkUnit // type@11
      0x0090: new-instance v2, com.android.cm3.MethodAtom // type@20
      0x0092: invoke-direct {v2}, void com.android.cm3.MethodAtom.<init>() // method@74
      0x0095: invoke-direct {v1, v2}, void com.android.cm3.BenchmarkUnit.<init>(com.android.cm3.BenchmarkAtom) // method@14
      0x0098: invoke-virtual {v0, v1}, void java.util.Vector.addElement(java.lang.Object) // method@139
      0x009b: sget-object  v0, Ljava/util/Vector; com.android.cm3.CaffeineMarkEmbeddedBenchmark.testResults // field@16
      0x009d: new-instance v1, java.lang.Integer // type@36
      0x009f: invoke-direct {v1, v3}, void java.lang.Integer.<init>(int) // method@113
      0x00a2: invoke-virtual {v0, v1}, void java.util.Vector.addElement(java.lang.Object) // method@139
      0x00a5: goto/16 -157
      0x00a7: nop
      0x00a8: nop
    OatMethodOffsets (offset=0x000044f0)
      code_offset: 0x00006b09 
      gc_map: (offset=0x000048ff)
    OatQuickMethodHeader (offset=0x00006af0)
      mapping_table: (offset=0x00005159)
      vmap_table: (offset=0x000055f0)
      v65534/r5, v1/r6, v0/r7, v2/r8, v4/r10, v65535/r15
    QuickMethodFrameInfo
      frame_size_in_bytes: 64
      core_spill_mask: 0x000085e0 (r5, r6, r7, r8, r10, r15)
      fp_spill_mask: 0x00000000 
    CODE: (code_offset=0x00006b09 size_offset=0x00006b04 size=956)...
      0x00006b08: f5bd5c00	subs    r12, sp, #8192
      0x00006b0c: f8dcc000	ldr.w   r12, [r12, #0]
      suspend point dex PC: 0x0000
      0x00006b10: e92d45e0	push    {r5, r6, r7, r8, r10, lr}
      0x00006b14: b08a    	sub     sp, sp, #40
      0x00006b16: 1c05    	mov     r5, r0
      0x00006b18: 9000    	str     r0, [sp, #0]
      0x00006b1a: 468a    	mov     r10, r1
      0x00006b1c: 68ab    	ldr     r3, [r5, #8]
      0x00006b1e: 2200    	movs    r2, #0
      0x00006b20: 9208    	str     r2, [sp, #32]
      0x00006b22: f8c32254	str.w   r2, [r3, #596]
      0x00006b26: f8d5c008	ldr.w   r12, [r5, #8]
      0x00006b2a: f8cc2248	str.w   r2, [r12, #584]
      0x00006b2e: f20f307c	adr     r0, +892 (0x00006eae)
      0x00006b32: f1ba0f05	cmp.w   r10, #5
      0x00006b36: f2008003	bhi.w   +6 (0x00006b40)
      0x00006b3a: f850102a	ldr.w   r1, [r0, r10, lsl #2]
      0x00006b3e: 448f    	add     pc, r1
      0x00006b40: 3c01    	subs    r4, #1
      0x00006b42: f00081af	beq.w   +862 (0x00006ea4)
      0x00006b46: b00a    	add     sp, sp, #40
      0x00006b48: e8bd85e0	pop     {r5, r6, r7, r8, r10, pc}
      0x00006b4c: 68aa    	ldr     r2, [r5, #8]
      0x00006b4e: f8d9e124	ldr.w   lr, [r9, #292]  ; pAllocObject
      0x00006b52: f8d2722c	ldr.w   r7, [r2, #556]
      0x00006b56: 1c29    	mov     r1, r5
      0x00006b58: 200b    	movs    r0, #11
      0x00006b5a: 47f0    	blx     lr
      suspend point dex PC: 0x000b
      GC map objects:  v0 (r7)
      0x00006b5c: f8d9e124	ldr.w   lr, [r9, #292]  ; pAllocObject
      0x00006b60: 1c06    	mov     r6, r0
      0x00006b62: 1c29    	mov     r1, r5
      0x00006b64: 201a    	movs    r0, #26
      0x00006b66: 47f0    	blx     lr
      suspend point dex PC: 0x000d
      GC map objects:  v0 (r7), v1 (r6)
      0x00006b68: 4680    	mov     r8, r0
      0x00006b6a: 1c28    	mov     r0, r5
      0x00006b6c: 68c0    	ldr     r0, [r0, #12]
      0x00006b6e: 4641    	mov     r1, r8
      0x00006b70: f8d00170	ldr.w   r0, [r0, #368]
      0x00006b74: f8d0e028	ldr.w   lr, [r0, #40]
      0x00006b78: 47f0    	blx     lr
      suspend point dex PC: 0x000f
      GC map objects:  v0 (r7), v1 (r6), v2 (r8)
      0x00006b7a: 1c28    	mov     r0, r5
      0x00006b7c: 68c0    	ldr     r0, [r0, #12]
      0x00006b7e: 1c31    	mov     r1, r6
      0x00006b80: 4642    	mov     r2, r8
      0x00006b82: 6c40    	ldr     r0, [r0, #68]
      0x00006b84: f8d0e028	ldr.w   lr, [r0, #40]
      0x00006b88: 47f0    	blx     lr
      suspend point dex PC: 0x0012
      GC map objects:  v0 (r7), v1 (r6), v2 (r8)
      0x00006b8a: 1c39    	mov     r1, r7
      0x00006b8c: 1c32    	mov     r2, r6
      0x00006b8e: 6808    	ldr     r0, [r1, #0]
      suspend point dex PC: 0x0015
      GC map objects:  v0 (r7), v1 (r6), v2 (r8)
      0x00006b90: f8d001fc	ldr.w   r0, [r0, #508]
      0x00006b94: f8d0e028	ldr.w   lr, [r0, #40]
      0x00006b98: 47f0    	blx     lr
      suspend point dex PC: 0x0015
      GC map objects:  v0 (r7), v1 (r6), v2 (r8)
      0x00006b9a: 68ab    	ldr     r3, [r5, #8]
      0x00006b9c: f8d9e12c	ldr.w   lr, [r9, #300]  ; pAllocObjectInitialized
      0x00006ba0: f8d37228	ldr.w   r7, [r3, #552]
      0x00006ba4: 1c29    	mov     r1, r5
      0x00006ba6: f6483048	movw    r0, #35656
      0x00006baa: f6c67095	movt    r0, #28565
      0x00006bae: 47f0    	blx     lr
      suspend point dex PC: 0x001a
      GC map objects:  v0 (r7), v1 (r6), v2 (r8)
      0x00006bb0: 1c06    	mov     r6, r0
      0x00006bb2: f2442eb1	movw    lr, #17073
      0x00006bb6: f2c71eed	movt    lr, #29165
      0x00006bba: f6486000	movw    r0, #36352
      0x00006bbe: f6c67095	movt    r0, #28565
      0x00006bc2: 1c31    	mov     r1, r6
      0x00006bc4: 2200    	movs    r2, #0
      0x00006bc6: 47f0    	blx     lr
      suspend point dex PC: 0x001c
      GC map objects:  v0 (r7), v1 (r6), v2 (r8)
      0x00006bc8: 1c39    	mov     r1, r7
      0x00006bca: 1c32    	mov     r2, r6
      0x00006bcc: 6808    	ldr     r0, [r1, #0]
      suspend point dex PC: 0x001f
      GC map objects:  v0 (r7), v1 (r6), v2 (r8)
      0x00006bce: f8d001fc	ldr.w   r0, [r0, #508]
      0x00006bd2: f8d0e028	ldr.w   lr, [r0, #40]
      0x00006bd6: 47f0    	blx     lr
      suspend point dex PC: 0x001f
      GC map objects:  v0 (r7), v1 (r6), v2 (r8)
      0x00006bd8: e7b2    	b       -156 (0x00006b40)
      0x00006bda: f8d5c008	ldr.w   r12, [r5, #8]
      0x00006bde: f8d9e124	ldr.w   lr, [r9, #292]  ; pAllocObject
      0x00006be2: f8dc722c	ldr.w   r7, [r12, #556]
      0x00006be6: 1c29    	mov     r1, r5
      0x00006be8: 200b    	movs    r0, #11
      0x00006bea: 47f0    	blx     lr
      suspend point dex PC: 0x0025
      GC map objects:  v0 (r7)
      0x00006bec: f8d9e124	ldr.w   lr, [r9, #292]  ; pAllocObject
      0x00006bf0: 1c06    	mov     r6, r0
      0x00006bf2: 1c29    	mov     r1, r5
      0x00006bf4: 2013    	movs    r0, #19
      0x00006bf6: 47f0    	blx     lr
      suspend point dex PC: 0x0027
      GC map objects:  v0 (r7), v1 (r6)
      0x00006bf8: 4680    	mov     r8, r0
      0x00006bfa: 1c28    	mov     r0, r5
      0x00006bfc: 68c0    	ldr     r0, [r0, #12]
      0x00006bfe: 4641    	mov     r1, r8
      0x00006c00: f8d00114	ldr.w   r0, [r0, #276]
      0x00006c04: f8d0e028	ldr.w   lr, [r0, #40]
      0x00006c08: 47f0    	blx     lr
      suspend point dex PC: 0x0029
      GC map objects:  v0 (r7), v1 (r6), v2 (r8)
      0x00006c0a: 1c28    	mov     r0, r5
      0x00006c0c: 68c0    	ldr     r0, [r0, #12]
      0x00006c0e: 1c31    	mov     r1, r6
      0x00006c10: 4642    	mov     r2, r8
      0x00006c12: 6c40    	ldr     r0, [r0, #68]
      0x00006c14: f8d0e028	ldr.w   lr, [r0, #40]
      0x00006c18: 47f0    	blx     lr
      suspend point dex PC: 0x002c
      GC map objects:  v0 (r7), v1 (r6), v2 (r8)
      0x00006c1a: 1c39    	mov     r1, r7
      0x00006c1c: 1c32    	mov     r2, r6
      0x00006c1e: 6808    	ldr     r0, [r1, #0]
      suspend point dex PC: 0x002f
      GC map objects:  v0 (r7), v1 (r6), v2 (r8)
      0x00006c20: f8d001fc	ldr.w   r0, [r0, #508]
      0x00006c24: f8d0e028	ldr.w   lr, [r0, #40]
      0x00006c28: 47f0    	blx     lr
      suspend point dex PC: 0x002f
      GC map objects:  v0 (r7), v1 (r6), v2 (r8)
      0x00006c2a: 68a8    	ldr     r0, [r5, #8]
      0x00006c2c: f8d9e12c	ldr.w   lr, [r9, #300]  ; pAllocObjectInitialized
      0x00006c30: f8d07228	ldr.w   r7, [r0, #552]
      0x00006c34: 1c29    	mov     r1, r5
      0x00006c36: f6483048	movw    r0, #35656
      0x00006c3a: f6c67095	movt    r0, #28565
      0x00006c3e: 47f0    	blx     lr
      suspend point dex PC: 0x0034
      GC map objects:  v0 (r7), v1 (r6), v2 (r8)
      0x00006c40: 1c06    	mov     r6, r0
      0x00006c42: f2442eb1	movw    lr, #17073
      0x00006c46: f2c71eed	movt    lr, #29165
      0x00006c4a: f6486000	movw    r0, #36352
      0x00006c4e: f6c67095	movt    r0, #28565
      0x00006c52: 1c31    	mov     r1, r6
      0x00006c54: 2200    	movs    r2, #0
      0x00006c56: 47f0    	blx     lr
      suspend point dex PC: 0x0036
      GC map objects:  v0 (r7), v1 (r6), v2 (r8)
      0x00006c58: 1c39    	mov     r1, r7
      0x00006c5a: 1c32    	mov     r2, r6
      0x00006c5c: 6808    	ldr     r0, [r1, #0]
      suspend point dex PC: 0x0039
      GC map objects:  v0 (r7), v1 (r6), v2 (r8)
      0x00006c5e: f8d001fc	ldr.w   r0, [r0, #508]
      0x00006c62: f8d0e028	ldr.w   lr, [r0, #40]
      0x00006c66: 47f0    	blx     lr
      suspend point dex PC: 0x0039
      GC map objects:  v0 (r7), v1 (r6), v2 (r8)
      0x00006c68: e76a    	b       -300 (0x00006b40)
      0x00006c6a: 68a9    	ldr     r1, [r5, #8]
      0x00006c6c: f8d9e124	ldr.w   lr, [r9, #292]  ; pAllocObject
      0x00006c70: f8d1722c	ldr.w   r7, [r1, #556]
      0x00006c74: 1c29    	mov     r1, r5
      0x00006c76: 200b    	movs    r0, #11
      0x00006c78: 47f0    	blx     lr
      suspend point dex PC: 0x003f
      GC map objects:  v0 (r7)
      0x00006c7a: f8d9e124	ldr.w   lr, [r9, #292]  ; pAllocObject
      0x00006c7e: 1c06    	mov     r6, r0
      0x00006c80: 1c29    	mov     r1, r5
      0x00006c82: 2012    	movs    r0, #18
      0x00006c84: 47f0    	blx     lr
      suspend point dex PC: 0x0041
      GC map objects:  v0 (r7), v1 (r6)
      0x00006c86: 4680    	mov     r8, r0
      0x00006c88: 1c28    	mov     r0, r5
      0x00006c8a: 68c0    	ldr     r0, [r0, #12]
      0x00006c8c: 4641    	mov     r1, r8
      0x00006c8e: f8d000f4	ldr.w   r0, [r0, #244]
      0x00006c92: f8d0e028	ldr.w   lr, [r0, #40]
      0x00006c96: 47f0    	blx     lr
      suspend point dex PC: 0x0043
      GC map objects:  v0 (r7), v1 (r6), v2 (r8)
      0x00006c98: 1c28    	mov     r0, r5
      0x00006c9a: 68c0    	ldr     r0, [r0, #12]
      0x00006c9c: 1c31    	mov     r1, r6
      0x00006c9e: 4642    	mov     r2, r8
      0x00006ca0: 6c40    	ldr     r0, [r0, #68]
      0x00006ca2: f8d0e028	ldr.w   lr, [r0, #40]
      0x00006ca6: 47f0    	blx     lr
      suspend point dex PC: 0x0046
      GC map objects:  v0 (r7), v1 (r6), v2 (r8)
      0x00006ca8: 1c39    	mov     r1, r7
      0x00006caa: 1c32    	mov     r2, r6
      0x00006cac: 6808    	ldr     r0, [r1, #0]
      suspend point dex PC: 0x0049
      GC map objects:  v0 (r7), v1 (r6), v2 (r8)
      0x00006cae: f8d001fc	ldr.w   r0, [r0, #508]
      0x00006cb2: f8d0e028	ldr.w   lr, [r0, #40]
      0x00006cb6: 47f0    	blx     lr
      suspend point dex PC: 0x0049
      GC map objects:  v0 (r7), v1 (r6), v2 (r8)
      0x00006cb8: 68aa    	ldr     r2, [r5, #8]
      0x00006cba: f8d9e12c	ldr.w   lr, [r9, #300]  ; pAllocObjectInitialized
      0x00006cbe: f8d27228	ldr.w   r7, [r2, #552]
      0x00006cc2: 1c29    	mov     r1, r5
      0x00006cc4: f6483048	movw    r0, #35656
      0x00006cc8: f6c67095	movt    r0, #28565
      0x00006ccc: 47f0    	blx     lr
      suspend point dex PC: 0x004e
      GC map objects:  v0 (r7), v1 (r6), v2 (r8)
      0x00006cce: 1c06    	mov     r6, r0
      0x00006cd0: f2442eb1	movw    lr, #17073
      0x00006cd4: f2c71eed	movt    lr, #29165
      0x00006cd8: f6486000	movw    r0, #36352
      0x00006cdc: f6c67095	movt    r0, #28565
      0x00006ce0: 1c31    	mov     r1, r6
      0x00006ce2: 2200    	movs    r2, #0
      0x00006ce4: 47f0    	blx     lr
      suspend point dex PC: 0x0050
      GC map objects:  v0 (r7), v1 (r6), v2 (r8)
      0x00006ce6: 1c39    	mov     r1, r7
      0x00006ce8: 1c32    	mov     r2, r6
      0x00006cea: 6808    	ldr     r0, [r1, #0]
      suspend point dex PC: 0x0053
      GC map objects:  v0 (r7), v1 (r6), v2 (r8)
      0x00006cec: f8d001fc	ldr.w   r0, [r0, #508]
      0x00006cf0: f8d0e028	ldr.w   lr, [r0, #40]
      0x00006cf4: 47f0    	blx     lr
      suspend point dex PC: 0x0053
      GC map objects:  v0 (r7), v1 (r6), v2 (r8)
      0x00006cf6: e723    	b       -442 (0x00006b40)
      0x00006cf8: 68ab    	ldr     r3, [r5, #8]
      0x00006cfa: f8d9e124	ldr.w   lr, [r9, #292]  ; pAllocObject
      0x00006cfe: f8d3722c	ldr.w   r7, [r3, #556]
      0x00006d02: 1c29    	mov     r1, r5
      0x00006d04: 200b    	movs    r0, #11
      0x00006d06: 47f0    	blx     lr
      suspend point dex PC: 0x0059
      GC map objects:  v0 (r7)
      0x00006d08: f8d9e124	ldr.w   lr, [r9, #292]  ; pAllocObject
      0x00006d0c: 1c06    	mov     r6, r0
      0x00006d0e: 1c29    	mov     r1, r5
      0x00006d10: 201c    	movs    r0, #28
      0x00006d12: 47f0    	blx     lr
      suspend point dex PC: 0x005b
      GC map objects:  v0 (r7), v1 (r6)
      0x00006d14: 4680    	mov     r8, r0
      0x00006d16: 1c28    	mov     r0, r5
      0x00006d18: 68c0    	ldr     r0, [r0, #12]
      0x00006d1a: 4641    	mov     r1, r8
      0x00006d1c: f8d001a4	ldr.w   r0, [r0, #420]
      0x00006d20: f8d0e028	ldr.w   lr, [r0, #40]
      0x00006d24: 47f0    	blx     lr
      suspend point dex PC: 0x005d
      GC map objects:  v0 (r7), v1 (r6), v2 (r8)
      0x00006d26: 1c28    	mov     r0, r5
      0x00006d28: 68c0    	ldr     r0, [r0, #12]
      0x00006d2a: 1c31    	mov     r1, r6
      0x00006d2c: 4642    	mov     r2, r8
      0x00006d2e: 6c40    	ldr     r0, [r0, #68]
      0x00006d30: f8d0e028	ldr.w   lr, [r0, #40]
      0x00006d34: 47f0    	blx     lr
      suspend point dex PC: 0x0060
      GC map objects:  v0 (r7), v1 (r6), v2 (r8)
      0x00006d36: 1c39    	mov     r1, r7
      0x00006d38: 1c32    	mov     r2, r6
      0x00006d3a: 6808    	ldr     r0, [r1, #0]
      suspend point dex PC: 0x0063
      GC map objects:  v0 (r7), v1 (r6), v2 (r8)
      0x00006d3c: f8d001fc	ldr.w   r0, [r0, #508]
      0x00006d40: f8d0e028	ldr.w   lr, [r0, #40]
      0x00006d44: 47f0    	blx     lr
      suspend point dex PC: 0x0063
      GC map objects:  v0 (r7), v1 (r6), v2 (r8)
      0x00006d46: f8d5c008	ldr.w   r12, [r5, #8]
      0x00006d4a: f8d9e12c	ldr.w   lr, [r9, #300]  ; pAllocObjectInitialized
      0x00006d4e: f8dc7228	ldr.w   r7, [r12, #552]
      0x00006d52: 1c29    	mov     r1, r5
      0x00006d54: f6483048	movw    r0, #35656
      0x00006d58: f6c67095	movt    r0, #28565
      0x00006d5c: 47f0    	blx     lr
      suspend point dex PC: 0x0068
      GC map objects:  v0 (r7), v1 (r6), v2 (r8)
      0x00006d5e: 1c06    	mov     r6, r0
      0x00006d60: f2442eb1	movw    lr, #17073
      0x00006d64: f2c71eed	movt    lr, #29165
      0x00006d68: f6486000	movw    r0, #36352
      0x00006d6c: f6c67095	movt    r0, #28565
      0x00006d70: 1c31    	mov     r1, r6
      0x00006d72: 2200    	movs    r2, #0
      0x00006d74: 47f0    	blx     lr
      suspend point dex PC: 0x006a
      GC map objects:  v0 (r7), v1 (r6), v2 (r8)
      0x00006d76: 1c39    	mov     r1, r7
      0x00006d78: 1c32    	mov     r2, r6
      0x00006d7a: 6808    	ldr     r0, [r1, #0]
      suspend point dex PC: 0x006d
      GC map objects:  v0 (r7), v1 (r6), v2 (r8)
      0x00006d7c: f8d001fc	ldr.w   r0, [r0, #508]
      0x00006d80: f8d0e028	ldr.w   lr, [r0, #40]
      0x00006d84: 47f0    	blx     lr
      suspend point dex PC: 0x006d
      GC map objects:  v0 (r7), v1 (r6), v2 (r8)
      0x00006d86: e6db    	b       -586 (0x00006b40)
      0x00006d88: 68a8    	ldr     r0, [r5, #8]
      0x00006d8a: f8d9e124	ldr.w   lr, [r9, #292]  ; pAllocObject
      0x00006d8e: f8d0722c	ldr.w   r7, [r0, #556]
      0x00006d92: 1c29    	mov     r1, r5
      0x00006d94: 200b    	movs    r0, #11
      0x00006d96: 47f0    	blx     lr
      suspend point dex PC: 0x0073
      GC map objects:  v0 (r7)
      0x00006d98: f8d9e124	ldr.w   lr, [r9, #292]  ; pAllocObject
      0x00006d9c: 1c06    	mov     r6, r0
      0x00006d9e: 1c29    	mov     r1, r5
      0x00006da0: 2011    	movs    r0, #17
      0x00006da2: 47f0    	blx     lr
      suspend point dex PC: 0x0075
      GC map objects:  v0 (r7), v1 (r6)
      0x00006da4: 4680    	mov     r8, r0
      0x00006da6: 1c28    	mov     r0, r5
      0x00006da8: 68c0    	ldr     r0, [r0, #12]
      0x00006daa: 4641    	mov     r1, r8
      0x00006dac: f8d000d4	ldr.w   r0, [r0, #212]
      0x00006db0: f8d0e028	ldr.w   lr, [r0, #40]
      0x00006db4: 47f0    	blx     lr
      suspend point dex PC: 0x0077
      GC map objects:  v0 (r7), v1 (r6), v2 (r8)
      0x00006db6: 1c28    	mov     r0, r5
      0x00006db8: 68c0    	ldr     r0, [r0, #12]
      0x00006dba: 1c31    	mov     r1, r6
      0x00006dbc: 4642    	mov     r2, r8
      0x00006dbe: 6c40    	ldr     r0, [r0, #68]
      0x00006dc0: f8d0e028	ldr.w   lr, [r0, #40]
      0x00006dc4: 47f0    	blx     lr
      suspend point dex PC: 0x007a
      GC map objects:  v0 (r7), v1 (r6), v2 (r8)
      0x00006dc6: 1c39    	mov     r1, r7
      0x00006dc8: 1c32    	mov     r2, r6
      0x00006dca: 6808    	ldr     r0, [r1, #0]
      suspend point dex PC: 0x007d
      GC map objects:  v0 (r7), v1 (r6), v2 (r8)
      0x00006dcc: f8d001fc	ldr.w   r0, [r0, #508]
      0x00006dd0: f8d0e028	ldr.w   lr, [r0, #40]
      0x00006dd4: 47f0    	blx     lr
      suspend point dex PC: 0x007d
      GC map objects:  v0 (r7), v1 (r6), v2 (r8)
      0x00006dd6: 68a9    	ldr     r1, [r5, #8]
      0x00006dd8: f8d9e12c	ldr.w   lr, [r9, #300]  ; pAllocObjectInitialized
      0x00006ddc: f8d17228	ldr.w   r7, [r1, #552]
      0x00006de0: 1c29    	mov     r1, r5
      0x00006de2: f6483048	movw    r0, #35656
      0x00006de6: f6c67095	movt    r0, #28565
      0x00006dea: 47f0    	blx     lr
      suspend point dex PC: 0x0082
      GC map objects:  v0 (r7), v1 (r6), v2 (r8)
      0x00006dec: 1c06    	mov     r6, r0
      0x00006dee: f2442eb1	movw    lr, #17073
      0x00006df2: f2c71eed	movt    lr, #29165
      0x00006df6: f6486000	movw    r0, #36352
      0x00006dfa: f6c67095	movt    r0, #28565
      0x00006dfe: 1c31    	mov     r1, r6
      0x00006e00: 2200    	movs    r2, #0
      0x00006e02: 47f0    	blx     lr
      suspend point dex PC: 0x0084
      GC map objects:  v0 (r7), v1 (r6), v2 (r8)
      0x00006e04: 1c39    	mov     r1, r7
      0x00006e06: 1c32    	mov     r2, r6
      0x00006e08: 6808    	ldr     r0, [r1, #0]
      suspend point dex PC: 0x0087
      GC map objects:  v0 (r7), v1 (r6), v2 (r8)
      0x00006e0a: f8d001fc	ldr.w   r0, [r0, #508]
      0x00006e0e: f8d0e028	ldr.w   lr, [r0, #40]
      0x00006e12: 47f0    	blx     lr
      suspend point dex PC: 0x0087
      GC map objects:  v0 (r7), v1 (r6), v2 (r8)
      0x00006e14: e694    	b       -728 (0x00006b40)
      0x00006e16: 68aa    	ldr     r2, [r5, #8]
      0x00006e18: f8d9e124	ldr.w   lr, [r9, #292]  ; pAllocObject
      0x00006e1c: f8d2722c	ldr.w   r7, [r2, #556]
      0x00006e20: 1c29    	mov     r1, r5
      0x00006e22: 200b    	movs    r0, #11
      0x00006e24: 47f0    	blx     lr
      suspend point dex PC: 0x008e
      GC map objects:  v0 (r7)
      0x00006e26: f8d9e124	ldr.w   lr, [r9, #292]  ; pAllocObject
      0x00006e2a: 1c06    	mov     r6, r0
      0x00006e2c: 1c29    	mov     r1, r5
      0x00006e2e: 2014    	movs    r0, #20
      0x00006e30: 47f0    	blx     lr
      suspend point dex PC: 0x0090
      GC map objects:  v0 (r7), v1 (r6)
      0x00006e32: 4680    	mov     r8, r0
      0x00006e34: 1c28    	mov     r0, r5
      0x00006e36: 68c0    	ldr     r0, [r0, #12]
      0x00006e38: 4641    	mov     r1, r8
      0x00006e3a: f8d00134	ldr.w   r0, [r0, #308]
      0x00006e3e: f8d0e028	ldr.w   lr, [r0, #40]
      0x00006e42: 47f0    	blx     lr
      suspend point dex PC: 0x0092
      GC map objects:  v0 (r7), v1 (r6), v2 (r8)
      0x00006e44: 1c28    	mov     r0, r5
      0x00006e46: 68c0    	ldr     r0, [r0, #12]
      0x00006e48: 1c31    	mov     r1, r6
      0x00006e4a: 4642    	mov     r2, r8
      0x00006e4c: 6c40    	ldr     r0, [r0, #68]
      0x00006e4e: f8d0e028	ldr.w   lr, [r0, #40]
      0x00006e52: 47f0    	blx     lr
      suspend point dex PC: 0x0095
      GC map objects:  v0 (r7), v1 (r6), v2 (r8)
      0x00006e54: 1c39    	mov     r1, r7
      0x00006e56: 1c32    	mov     r2, r6
      0x00006e58: 6808    	ldr     r0, [r1, #0]
      suspend point dex PC: 0x0098
      GC map objects:  v0 (r7), v1 (r6), v2 (r8)
      0x00006e5a: f8d001fc	ldr.w   r0, [r0, #508]
      0x00006e5e: f8d0e028	ldr.w   lr, [r0, #40]
      0x00006e62: 47f0    	blx     lr
      suspend point dex PC: 0x0098
      GC map objects:  v0 (r7), v1 (r6), v2 (r8)
      0x00006e64: 68ab    	ldr     r3, [r5, #8]
      0x00006e66: f8d9e12c	ldr.w   lr, [r9, #300]  ; pAllocObjectInitialized
      0x00006e6a: f8d37228	ldr.w   r7, [r3, #552]
      0x00006e6e: 1c29    	mov     r1, r5
      0x00006e70: f6483048	movw    r0, #35656
      0x00006e74: f6c67095	movt    r0, #28565
      0x00006e78: 47f0    	blx     lr
      suspend point dex PC: 0x009d
      GC map objects:  v0 (r7), v1 (r6), v2 (r8)
      0x00006e7a: 1c06    	mov     r6, r0
      0x00006e7c: f2442eb1	movw    lr, #17073
      0x00006e80: f2c71eed	movt    lr, #29165
      0x00006e84: f6486000	movw    r0, #36352
      0x00006e88: f6c67095	movt    r0, #28565
      0x00006e8c: 1c31    	mov     r1, r6
      0x00006e8e: 2200    	movs    r2, #0
      0x00006e90: 47f0    	blx     lr
      suspend point dex PC: 0x009f
      GC map objects:  v0 (r7), v1 (r6), v2 (r8)
      0x00006e92: 1c39    	mov     r1, r7
      0x00006e94: 1c32    	mov     r2, r6
      0x00006e96: 6808    	ldr     r0, [r1, #0]
      suspend point dex PC: 0x00a2
      GC map objects:  v0 (r7), v1 (r6), v2 (r8)
      0x00006e98: f8d001fc	ldr.w   r0, [r0, #508]
      0x00006e9c: f8d0e028	ldr.w   lr, [r0, #40]
      0x00006ea0: 47f0    	blx     lr
      suspend point dex PC: 0x00a2
      GC map objects:  v0 (r7), v1 (r6), v2 (r8)
      0x00006ea2: e64d    	b       -870 (0x00006b40)
      0x00006ea4: f8d9e230	ldr.w   lr, [r9, #560]  ; pTestSuspend
      0x00006ea8: 47f0    	blx     lr
      suspend point dex PC: 0x0008
      0x00006eaa: e64c    	b       -872 (0x00006b46)
      0x00006eac: 000a    	lsls    r2, r1, #0
      0x00006eae: 0000    	lsls    r0, r0, #0
      0x00006eb0: 0098    	lsls    r0, r3, #2
      0x00006eb2: 0000    	lsls    r0, r0, #0
      0x00006eb4: 0128    	lsls    r0, r5, #4
      0x00006eb6: 0000    	lsls    r0, r0, #0
      0x00006eb8: 01b6    	lsls    r6, r6, #6
      0x00006eba: 0000    	lsls    r0, r0, #0
      0x00006ebc: 0246    	lsls    r6, r0, #9
      0x00006ebe: 0000    	lsls    r0, r0, #0
      0x00006ec0: 02d4    	lsls    r4, r2, #11
      0x00006ec2: 0000    	lsls    r0, r0, #0
  4: void com.android.cm3.CaffeineMarkEmbeddedBenchmark.clearSequence() (dex_method_idx=30) 9
    DEX CODE:
      0x0000: const/4 v0, #+0
      0x0001: sput-boolean v0, Z com.android.cm3.CaffeineMarkEmbeddedBenchmark.isNormalSequence // field@14
      0x0003: sget-object  v0, Ljava/util/Vector; com.android.cm3.CaffeineMarkEmbeddedBenchmark.testSequence // field@17
      0x0005: invoke-virtual {v0}, void java.util.Vector.removeAllElements() // method@141
      0x0008: sget-object  v0, Ljava/util/Vector; com.android.cm3.CaffeineMarkEmbeddedBenchmark.testResults // field@16
      0x000a: invoke-virtual {v0}, void java.util.Vector.removeAllElements() // method@141
      0x000d: return-void
    OatMethodOffsets (offset=0x000044f8)
      code_offset: 0x00006ee1 
      gc_map: (offset=0x000049bd)
    OatQuickMethodHeader (offset=0x00006ec8)
      mapping_table: (offset=0x000051d8)
      vmap_table: (offset=0x000055f7)
      v65534/r5, v0/r6, v65535/r15
    QuickMethodFrameInfo
      frame_size_in_bytes: 32
      core_spill_mask: 0x00008060 (r5, r6, r15)
      fp_spill_mask: 0x00000000 
    CODE: (code_offset=0x00006ee1 size_offset=0x00006edc size=88)...
      0x00006ee0: f5bd5c00	subs    r12, sp, #8192
      0x00006ee4: f8dcc000	ldr.w   r12, [r12, #0]
      suspend point dex PC: 0x0000
      0x00006ee8: e92d4060	push    {r5, r6, lr}
      0x00006eec: b085    	sub     sp, sp, #20
      0x00006eee: 1c05    	mov     r5, r0
      0x00006ef0: 9000    	str     r0, [sp, #0]
      0x00006ef2: 68aa    	ldr     r2, [r5, #8]
      0x00006ef4: 2600    	movs    r6, #0
      0x00006ef6: f8c26254	str.w   r6, [r2, #596]
      0x00006efa: 68ab    	ldr     r3, [r5, #8]
      0x00006efc: f8d3622c	ldr.w   r6, [r3, #556]
      0x00006f00: 1c31    	mov     r1, r6
      0x00006f02: 6808    	ldr     r0, [r1, #0]
      suspend point dex PC: 0x0005
      GC map objects:  v0 (r6)
      0x00006f04: f8d00228	ldr.w   r0, [r0, #552]
      0x00006f08: f8d0e028	ldr.w   lr, [r0, #40]
      0x00006f0c: 47f0    	blx     lr
      suspend point dex PC: 0x0005
      GC map objects:  v0 (r6)
      0x00006f0e: f8d5c008	ldr.w   r12, [r5, #8]
      0x00006f12: f8dc6228	ldr.w   r6, [r12, #552]
      0x00006f16: 1c31    	mov     r1, r6
      0x00006f18: 6808    	ldr     r0, [r1, #0]
      suspend point dex PC: 0x000a
      GC map objects:  v0 (r6)
      0x00006f1a: f8d00228	ldr.w   r0, [r0, #552]
      0x00006f1e: f8d0e028	ldr.w   lr, [r0, #40]
      0x00006f22: 47f0    	blx     lr
      suspend point dex PC: 0x000a
      GC map objects:  v0 (r6)
      0x00006f24: 3c01    	subs    r4, #1
      0x00006f26: f0008003	beq.w   +6 (0x00006f30)
      0x00006f2a: b005    	add     sp, sp, #20
      0x00006f2c: e8bd8060	pop     {r5, r6, pc}
      0x00006f30: f8d9e230	ldr.w   lr, [r9, #560]  ; pTestSuspend
      0x00006f34: 47f0    	blx     lr
      suspend point dex PC: 0x000d
      0x00006f36: e7f8    	b       -16 (0x00006f2a)
  5: int com.android.cm3.CaffeineMarkEmbeddedBenchmark.getHighScore() (dex_method_idx=31) 9
    DEX CODE:
      0x0000: const/4 v0, #+0
      0x0001: const/4 v1, #+0
      0x0002: sget-object  v3, Ljava/util/Vector; com.android.cm3.CaffeineMarkEmbeddedBenchmark.testResults // field@16
      0x0004: invoke-virtual {v3}, int java.util.Vector.size() // method@143
      0x0007: move-result v3
      0x0008: if-lt v1, v3, +3
      0x000a: return v0
      0x000b: invoke-static {v1}, int com.android.cm3.CaffeineMarkEmbeddedBenchmark.getTestResult(int) // method@34
      0x000e: move-result v2
      0x000f: if-le v2, v0, +3
      0x0011: move v0, v2
      0x0012: add-int/lit8 v1, v1, #+1
      0x0014: goto -18
    OatMethodOffsets (offset=0x00004500)
      code_offset: 0x00006f51 
      gc_map: (offset=0x000049cd)
    OatQuickMethodHeader (offset=0x00006f38)
      mapping_table: (offset=0x000051e6)
      vmap_table: (offset=0x000055fb)
      v0/r5, v1/r6, v65534/r7, v2/r8, v3/r10, v65535/r15
    QuickMethodFrameInfo
      frame_size_in_bytes: 64
      core_spill_mask: 0x000085e0 (r5, r6, r7, r8, r10, r15)
      fp_spill_mask: 0x00000000 
    CODE: (code_offset=0x00006f51 size_offset=0x00006f4c size=104)...
      0x00006f50: f5bd5c00	subs    r12, sp, #8192
      0x00006f54: f8dcc000	ldr.w   r12, [r12, #0]
      suspend point dex PC: 0x0000
      0x00006f58: e92d45e0	push    {r5, r6, r7, r8, r10, lr}
      0x00006f5c: b08a    	sub     sp, sp, #40
      0x00006f5e: 1c07    	mov     r7, r0
      0x00006f60: 9000    	str     r0, [sp, #0]
      0x00006f62: 2500    	movs    r5, #0
      0x00006f64: 2600    	movs    r6, #0
      0x00006f66: 68ba    	ldr     r2, [r7, #8]
      0x00006f68: f8d2a228	ldr.w   r10, [r2, #552]
      0x00006f6c: 4651    	mov     r1, r10
      0x00006f6e: 6808    	ldr     r0, [r1, #0]
      suspend point dex PC: 0x0004
      GC map objects:  v3 (r10)
      0x00006f70: f8d001c4	ldr.w   r0, [r0, #452]
      0x00006f74: f8d0e028	ldr.w   lr, [r0, #40]
      0x00006f78: 47f0    	blx     lr
      suspend point dex PC: 0x0004
      GC map objects:  v3 (r10)
      0x00006f7a: 4682    	mov     r10, r0
      0x00006f7c: 4556    	cmp     r6, r10
      0x00006f7e: f2c08007	blt.w   +14 (0x00006f90)
      0x00006f82: 3c01    	subs    r4, #1
      0x00006f84: f0008013	beq.w   +38 (0x00006fae)
      0x00006f88: 1c28    	mov     r0, r5
      0x00006f8a: b00a    	add     sp, sp, #40
      0x00006f8c: e8bd85e0	pop     {r5, r6, r7, r8, r10, pc}
      0x00006f90: 1c38    	mov     r0, r7
      0x00006f92: 68c0    	ldr     r0, [r0, #12]
      0x00006f94: 1c31    	mov     r1, r6
      0x00006f96: f8d00094	ldr.w   r0, [r0, #148]
      0x00006f9a: f8d0e028	ldr.w   lr, [r0, #40]
      0x00006f9e: 47f0    	blx     lr
      suspend point dex PC: 0x000b
      0x00006fa0: 4680    	mov     r8, r0
      0x00006fa2: 45a8    	cmp     r8, r5
      0x00006fa4: f3408001	ble.w   +2 (0x00006faa)
      0x00006fa8: 4645    	mov     r5, r8
      0x00006faa: 1c76    	adds    r6, r6, #1
      0x00006fac: e7db    	b       -74 (0x00006f66)
      0x00006fae: f8d9e230	ldr.w   lr, [r9, #560]  ; pTestSuspend
      0x00006fb2: 47f0    	blx     lr
      suspend point dex PC: 0x000a
      0x00006fb4: e7e8    	b       -48 (0x00006f88)
      0x00006fb6: 0000    	lsls    r0, r0, #0
  6: int com.android.cm3.CaffeineMarkEmbeddedBenchmark.getLastResult(int) (dex_method_idx=32) 9
    DEX CODE:
      0x0000: sget-object  v1, Ljava/util/Vector; com.android.cm3.CaffeineMarkEmbeddedBenchmark.testResults // field@16
      0x0002: invoke-virtual {v1}, int java.util.Vector.size() // method@143
      0x0005: move-result v1
      0x0006: if-lt v2, v1, +4
      0x0008: const/4 v1, #+0
      0x0009: return v1
      0x000a: sget-object  v1, Ljava/util/Vector; com.android.cm3.CaffeineMarkEmbeddedBenchmark.testSequence // field@17
      0x000c: invoke-virtual {v1, v2}, java.lang.Object java.util.Vector.elementAt(int) // method@140
      0x000f: move-result-object v0
      0x0010: check-cast v0, com.android.cm3.BenchmarkUnit // type@11
      0x0012: iget v1, v0, I com.android.cm3.BenchmarkUnit.lastResult // field@0
      0x0014: goto -11
    OatMethodOffsets (offset=0x00004508)
      code_offset: 0x00006fd1 
      gc_map: (offset=0x000049db)
    OatQuickMethodHeader (offset=0x00006fb8)
      mapping_table: (offset=0x000051f2)
      vmap_table: (offset=0x00005602)
      v1/r5, v65534/r6, v0/r7, v2/r8, v65535/r15
    QuickMethodFrameInfo
      frame_size_in_bytes: 48
      core_spill_mask: 0x000081e0 (r5, r6, r7, r8, r15)
      fp_spill_mask: 0x00000000 
    CODE: (code_offset=0x00006fd1 size_offset=0x00006fcc size=144)...
      0x00006fd0: f5bd5c00	subs    r12, sp, #8192
      0x00006fd4: f8dcc000	ldr.w   r12, [r12, #0]
      suspend point dex PC: 0x0000
      0x00006fd8: e92d41e0	push    {r5, r6, r7, r8, lr}
      0x00006fdc: b087    	sub     sp, sp, #28
      0x00006fde: 1c06    	mov     r6, r0
      0x00006fe0: 9000    	str     r0, [sp, #0]
      0x00006fe2: 4688    	mov     r8, r1
      0x00006fe4: 68b2    	ldr     r2, [r6, #8]
      0x00006fe6: f8d25228	ldr.w   r5, [r2, #552]
      0x00006fea: 1c29    	mov     r1, r5
      0x00006fec: 6808    	ldr     r0, [r1, #0]
      suspend point dex PC: 0x0002
      GC map objects:  v1 (r5)
      0x00006fee: f8d001c4	ldr.w   r0, [r0, #452]
      0x00006ff2: f8d0e028	ldr.w   lr, [r0, #40]
      0x00006ff6: 47f0    	blx     lr
      suspend point dex PC: 0x0002
      GC map objects:  v1 (r5)
      0x00006ff8: 1c05    	mov     r5, r0
      0x00006ffa: 45a8    	cmp     r8, r5
      0x00006ffc: f2c08008	blt.w   +16 (0x00007010)
      0x00007000: 2500    	movs    r5, #0
      0x00007002: 3c01    	subs    r4, #1
      0x00007004: f000801c	beq.w   +56 (0x00007040)
      0x00007008: 1c28    	mov     r0, r5
      0x0000700a: b007    	add     sp, sp, #28
      0x0000700c: e8bd81e0	pop     {r5, r6, r7, r8, pc}
      0x00007010: 68b3    	ldr     r3, [r6, #8]
      0x00007012: f8d3522c	ldr.w   r5, [r3, #556]
      0x00007016: 1c29    	mov     r1, r5
      0x00007018: 4642    	mov     r2, r8
      0x0000701a: 6808    	ldr     r0, [r1, #0]
      suspend point dex PC: 0x000c
      GC map objects:  v1 (r5)
      0x0000701c: f8d00208	ldr.w   r0, [r0, #520]
      0x00007020: f8d0e028	ldr.w   lr, [r0, #40]
      0x00007024: 47f0    	blx     lr
      suspend point dex PC: 0x000c
      GC map objects:  v1 (r5)
      0x00007026: 1c07    	mov     r7, r0
      0x00007028: 1c31    	mov     r1, r6
      0x0000702a: 690a    	ldr     r2, [r1, #16]
      0x0000702c: 6b92    	ldr     r2, [r2, #56]
      0x0000702e: b15a    	cbz     r2, +22 (0x00007048)
      0x00007030: 1c38    	mov     r0, r7
      0x00007032: b118    	cbz     r0, +6 (0x0000703c)
      0x00007034: 6801    	ldr     r1, [r0, #0]
      0x00007036: 4291    	cmp     r1, r2
      0x00007038: f040800c	bne.w   +24 (0x00007054)
      0x0000703c: 68fd    	ldr     r5, [r7, #12]
      suspend point dex PC: 0x0012
      GC map objects:  v0 (r7), v1 (r5)
      0x0000703e: e7e0    	b       -64 (0x00007002)
      0x00007040: f8d9e230	ldr.w   lr, [r9, #560]  ; pTestSuspend
      0x00007044: 47f0    	blx     lr
      suspend point dex PC: 0x0009
      0x00007046: e7df    	b       -66 (0x00007008)
      0x00007048: f8d9e14c	ldr.w   lr, [r9, #332]  ; pInitializeType
      0x0000704c: 200b    	movs    r0, #11
      0x0000704e: 47f0    	blx     lr
      suspend point dex PC: 0x0010
      GC map objects:  v0 (r7), v1 (r5)
      0x00007050: 1c02    	mov     r2, r0
      0x00007052: e7ed    	b       -38 (0x00007030)
      0x00007054: f8d9e140	ldr.w   lr, [r9, #320]  ; pCheckCast
      0x00007058: 1c10    	mov     r0, r2
      0x0000705a: 47f0    	blx     lr
      suspend point dex PC: 0x0010
      GC map objects:  v0 (r7), v1 (r5)
      0x0000705c: e7ee    	b       -36 (0x0000703c)
      0x0000705e: 0000    	lsls    r0, r0, #0
  7: java.lang.String com.android.cm3.CaffeineMarkEmbeddedBenchmark.getTestName(int) (dex_method_idx=33) 9
    DEX CODE:
      0x0000: sget-object  v1, Ljava/util/Vector; com.android.cm3.CaffeineMarkEmbeddedBenchmark.testSequence // field@17
      0x0002: invoke-virtual {v1}, int java.util.Vector.size() // method@143
      0x0005: move-result v1
      0x0006: if-lt v2, v1, +5
      0x0008: const-string v1, "Invalid Test Number" // string@34
      0x000a: return-object v1
      0x000b: sget-object  v1, Ljava/util/Vector; com.android.cm3.CaffeineMarkEmbeddedBenchmark.testSequence // field@17
      0x000d: invoke-virtual {v1, v2}, java.lang.Object java.util.Vector.elementAt(int) // method@140
      0x0010: move-result-object v0
      0x0011: check-cast v0, com.android.cm3.BenchmarkUnit // type@11
      0x0013: invoke-virtual {v0}, java.lang.String com.android.cm3.BenchmarkUnit.testName() // method@20
      0x0016: move-result-object v1
      0x0017: goto -13
    OatMethodOffsets (offset=0x00004510)
      code_offset: 0x00007079 
      gc_map: (offset=0x000049f1)
    OatQuickMethodHeader (offset=0x00007060)
      mapping_table: (offset=0x00005206)
      vmap_table: (offset=0x00005602)
      v1/r5, v65534/r6, v0/r7, v2/r8, v65535/r15
    QuickMethodFrameInfo
      frame_size_in_bytes: 48
      core_spill_mask: 0x000081e0 (r5, r6, r7, r8, r15)
      fp_spill_mask: 0x00000000 
    CODE: (code_offset=0x00007079 size_offset=0x00007074 size=176)...
      0x00007078: f5bd5c00	subs    r12, sp, #8192
      0x0000707c: f8dcc000	ldr.w   r12, [r12, #0]
      suspend point dex PC: 0x0000
      0x00007080: e92d41e0	push    {r5, r6, r7, r8, lr}
      0x00007084: b087    	sub     sp, sp, #28
      0x00007086: 1c06    	mov     r6, r0
      0x00007088: 9000    	str     r0, [sp, #0]
      0x0000708a: 4688    	mov     r8, r1
      0x0000708c: 68b2    	ldr     r2, [r6, #8]
      0x0000708e: f8d2522c	ldr.w   r5, [r2, #556]
      0x00007092: 1c29    	mov     r1, r5
      0x00007094: 6808    	ldr     r0, [r1, #0]
      suspend point dex PC: 0x0002
      GC map objects:  v1 (r5)
      0x00007096: f8d001c4	ldr.w   r0, [r0, #452]
      0x0000709a: f8d0e028	ldr.w   lr, [r0, #40]
      0x0000709e: 47f0    	blx     lr
      suspend point dex PC: 0x0002
      GC map objects:  v1 (r5)
      0x000070a0: 1c05    	mov     r5, r0
      0x000070a2: 45a8    	cmp     r8, r5
      0x000070a4: f2c0800c	blt.w   +24 (0x000070c0)
      0x000070a8: 6970    	ldr     r0, [r6, #20]
      0x000070aa: f8d00094	ldr.w   r0, [r0, #148]
      0x000070ae: b330    	cbz     r0, +76 (0x000070fe)
      0x000070b0: 1c05    	mov     r5, r0
      0x000070b2: 3c01    	subs    r4, #1
      0x000070b4: f0008029	beq.w   +82 (0x0000710a)
      0x000070b8: 1c28    	mov     r0, r5
      0x000070ba: b007    	add     sp, sp, #28
      0x000070bc: e8bd81e0	pop     {r5, r6, r7, r8, pc}
      0x000070c0: 68b3    	ldr     r3, [r6, #8]
      0x000070c2: f8d3522c	ldr.w   r5, [r3, #556]
      0x000070c6: 1c29    	mov     r1, r5
      0x000070c8: 4642    	mov     r2, r8
      0x000070ca: 6808    	ldr     r0, [r1, #0]
      suspend point dex PC: 0x000d
      GC map objects:  v1 (r5)
      0x000070cc: f8d00208	ldr.w   r0, [r0, #520]
      0x000070d0: f8d0e028	ldr.w   lr, [r0, #40]
      0x000070d4: 47f0    	blx     lr
      suspend point dex PC: 0x000d
      GC map objects:  v1 (r5)
      0x000070d6: 1c07    	mov     r7, r0
      0x000070d8: 1c31    	mov     r1, r6
      0x000070da: 690a    	ldr     r2, [r1, #16]
      0x000070dc: 6b92    	ldr     r2, [r2, #56]
      0x000070de: b1c2    	cbz     r2, +48 (0x00007112)
      0x000070e0: 1c38    	mov     r0, r7
      0x000070e2: b118    	cbz     r0, +6 (0x000070ec)
      0x000070e4: 6801    	ldr     r1, [r0, #0]
      0x000070e6: 4291    	cmp     r1, r2
      0x000070e8: f0408019	bne.w   +50 (0x0000711e)
      0x000070ec: 1c39    	mov     r1, r7
      0x000070ee: 6808    	ldr     r0, [r1, #0]
      suspend point dex PC: 0x0013
      GC map objects:  v0 (r7), v1 (r5)
      0x000070f0: f8d001b0	ldr.w   r0, [r0, #432]
      0x000070f4: f8d0e028	ldr.w   lr, [r0, #40]
      0x000070f8: 47f0    	blx     lr
      suspend point dex PC: 0x0013
      GC map objects:  v0 (r7), v1 (r5)
      0x000070fa: 1c05    	mov     r5, r0
      0x000070fc: e7d9    	b       -78 (0x000070b2)
      0x000070fe: f8d9e150	ldr.w   lr, [r9, #336]  ; pResolveString
      0x00007102: 1c30    	mov     r0, r6
      0x00007104: 2122    	movs    r1, #34
      0x00007106: 47f0    	blx     lr
      suspend point dex PC: 0x0008
      0x00007108: e7d2    	b       -92 (0x000070b0)
      0x0000710a: f8d9e230	ldr.w   lr, [r9, #560]  ; pTestSuspend
      0x0000710e: 47f0    	blx     lr
      suspend point dex PC: 0x000a
      GC map objects:  v1 (r5)
      0x00007110: e7d2    	b       -92 (0x000070b8)
      0x00007112: f8d9e14c	ldr.w   lr, [r9, #332]  ; pInitializeType
      0x00007116: 200b    	movs    r0, #11
      0x00007118: 47f0    	blx     lr
      suspend point dex PC: 0x0011
      GC map objects:  v0 (r7), v1 (r5)
      0x0000711a: 1c02    	mov     r2, r0
      0x0000711c: e7e0    	b       -64 (0x000070e0)
      0x0000711e: f8d9e140	ldr.w   lr, [r9, #320]  ; pCheckCast
      0x00007122: 1c10    	mov     r0, r2
      0x00007124: 47f0    	blx     lr
      suspend point dex PC: 0x0011
      GC map objects:  v0 (r7), v1 (r5)
      0x00007126: e7e1    	b       -62 (0x000070ec)
  8: int com.android.cm3.CaffeineMarkEmbeddedBenchmark.getTestResult(int) (dex_method_idx=34) 9
    DEX CODE:
      0x0000: sget-object  v1, Ljava/util/Vector; com.android.cm3.CaffeineMarkEmbeddedBenchmark.testResults // field@16
      0x0002: invoke-virtual {v1}, int java.util.Vector.size() // method@143
      0x0005: move-result v1
      0x0006: if-lt v2, v1, +4
      0x0008: const/4 v1, #+0
      0x0009: return v1
      0x000a: sget-object  v1, Ljava/util/Vector; com.android.cm3.CaffeineMarkEmbeddedBenchmark.testResults // field@16
      0x000c: invoke-virtual {v1, v2}, java.lang.Object java.util.Vector.elementAt(int) // method@140
      0x000f: move-result-object v0
      0x0010: check-cast v0, java.lang.Integer // type@36
      0x0012: invoke-virtual {v0}, int java.lang.Integer.intValue() // method@115
      0x0015: move-result v1
      0x0016: goto -13
    OatMethodOffsets (offset=0x00004518)
      code_offset: 0x00007141 
      gc_map: (offset=0x00004a0b)
    OatQuickMethodHeader (offset=0x00007128)
      mapping_table: (offset=0x0000521e)
      vmap_table: (offset=0x00005608)
      v65534/r5, v1/r6, v0/r7, v2/r8, v65535/r15
    QuickMethodFrameInfo
      frame_size_in_bytes: 48
      core_spill_mask: 0x000081e0 (r5, r6, r7, r8, r15)
      fp_spill_mask: 0x00000000 
    CODE: (code_offset=0x00007141 size_offset=0x0000713c size=168)...
      0x00007140: f5bd5c00	subs    r12, sp, #8192
      0x00007144: f8dcc000	ldr.w   r12, [r12, #0]
      suspend point dex PC: 0x0000
      0x00007148: e92d41e0	push    {r5, r6, r7, r8, lr}
      0x0000714c: b087    	sub     sp, sp, #28
      0x0000714e: 1c05    	mov     r5, r0
      0x00007150: 9000    	str     r0, [sp, #0]
      0x00007152: 4688    	mov     r8, r1
      0x00007154: 68aa    	ldr     r2, [r5, #8]
      0x00007156: f8d26228	ldr.w   r6, [r2, #552]
      0x0000715a: 1c31    	mov     r1, r6
      0x0000715c: 6808    	ldr     r0, [r1, #0]
      suspend point dex PC: 0x0002
      GC map objects:  v1 (r6)
      0x0000715e: f8d001c4	ldr.w   r0, [r0, #452]
      0x00007162: f8d0e028	ldr.w   lr, [r0, #40]
      0x00007166: 47f0    	blx     lr
      suspend point dex PC: 0x0002
      GC map objects:  v1 (r6)
      0x00007168: 1c06    	mov     r6, r0
      0x0000716a: 45b0    	cmp     r8, r6
      0x0000716c: f2c08008	blt.w   +16 (0x00007180)
      0x00007170: 2600    	movs    r6, #0
      0x00007172: 3c01    	subs    r4, #1
      0x00007174: f0008029	beq.w   +82 (0x000071ca)
      0x00007178: 1c30    	mov     r0, r6
      0x0000717a: b007    	add     sp, sp, #28
      0x0000717c: e8bd81e0	pop     {r5, r6, r7, r8, pc}
      0x00007180: 68ab    	ldr     r3, [r5, #8]
      0x00007182: f8d36228	ldr.w   r6, [r3, #552]
      0x00007186: 1c31    	mov     r1, r6
      0x00007188: 4642    	mov     r2, r8
      0x0000718a: 6808    	ldr     r0, [r1, #0]
      suspend point dex PC: 0x000c
      GC map objects:  v1 (r6)
      0x0000718c: f8d00208	ldr.w   r0, [r0, #520]
      0x00007190: f8d0e028	ldr.w   lr, [r0, #40]
      0x00007194: 47f0    	blx     lr
      suspend point dex PC: 0x000c
      GC map objects:  v1 (r6)
      0x00007196: 1c07    	mov     r7, r0
      0x00007198: 1c29    	mov     r1, r5
      0x0000719a: 690a    	ldr     r2, [r1, #16]
      0x0000719c: f8d2209c	ldr.w   r2, [r2, #156]
      0x000071a0: b1ba    	cbz     r2, +46 (0x000071d2)
      0x000071a2: 1c38    	mov     r0, r7
      0x000071a4: b118    	cbz     r0, +6 (0x000071ae)
      0x000071a6: 6801    	ldr     r1, [r0, #0]
      0x000071a8: 4291    	cmp     r1, r2
      0x000071aa: f0408018	bne.w   +48 (0x000071de)
      0x000071ae: f2426e99	movw    lr, #9881
      0x000071b2: f2c71ee8	movt    lr, #29160
      0x000071b6: f6492058	movw    r0, #39512
      0x000071ba: f6c67095	movt    r0, #28565
      0x000071be: 1c39    	mov     r1, r7
      0x000071c0: f8d1c000	ldr.w   r12, [r1, #0]
      suspend point dex PC: 0x0012
      GC map objects:  v0 (r7), v1 (r6)
      0x000071c4: 47f0    	blx     lr
      suspend point dex PC: 0x0012
      GC map objects:  v0 (r7), v1 (r6)
      0x000071c6: 1c06    	mov     r6, r0
      0x000071c8: e7d3    	b       -90 (0x00007172)
      0x000071ca: f8d9e230	ldr.w   lr, [r9, #560]  ; pTestSuspend
      0x000071ce: 47f0    	blx     lr
      suspend point dex PC: 0x0009
      0x000071d0: e7d2    	b       -92 (0x00007178)
      0x000071d2: f8d9e14c	ldr.w   lr, [r9, #332]  ; pInitializeType
      0x000071d6: 2024    	movs    r0, #36
      0x000071d8: 47f0    	blx     lr
      suspend point dex PC: 0x0010
      GC map objects:  v0 (r7), v1 (r6)
      0x000071da: 1c02    	mov     r2, r0
      0x000071dc: e7e1    	b       -62 (0x000071a2)
      0x000071de: f8d9e140	ldr.w   lr, [r9, #320]  ; pCheckCast
      0x000071e2: 1c10    	mov     r0, r2
      0x000071e4: 47f0    	blx     lr
      suspend point dex PC: 0x0010
      GC map objects:  v0 (r7), v1 (r6)
      0x000071e6: e7e2    	b       -60 (0x000071ae)
  9: void com.android.cm3.CaffeineMarkEmbeddedBenchmark.setAllLocal() (dex_method_idx=36) 9
    DEX CODE:
      0x0000: const/4 v1, #+0
      0x0001: sget-object  v2, Ljava/util/Vector; com.android.cm3.CaffeineMarkEmbeddedBenchmark.testSequence // field@17
      0x0003: invoke-virtual {v2}, int java.util.Vector.size() // method@143
      0x0006: move-result v2
      0x0007: if-lt v1, v2, +3
      0x0009: return-void
      0x000a: sget-object  v2, Ljava/util/Vector; com.android.cm3.CaffeineMarkEmbeddedBenchmark.testSequence // field@17
      0x000c: invoke-virtual {v2, v1}, java.lang.Object java.util.Vector.elementAt(int) // method@140
      0x000f: move-result-object v0
      0x0010: check-cast v0, com.android.cm3.BenchmarkUnit // type@11
      0x0012: invoke-virtual {v0}, void com.android.cm3.BenchmarkUnit.setLocal() // method@17
      0x0015: add-int/lit8 v1, v1, #+1
      0x0017: goto -22
    OatMethodOffsets (offset=0x00004520)
      code_offset: 0x00007201 
      gc_map: (offset=0x00004a23)
    OatQuickMethodHeader (offset=0x000071e8)
      mapping_table: (offset=0x00005234)
      vmap_table: (offset=0x00005608)
      v65534/r5, v1/r6, v0/r7, v2/r8, v65535/r15
    QuickMethodFrameInfo
      frame_size_in_bytes: 48
      core_spill_mask: 0x000081e0 (r5, r6, r7, r8, r15)
      fp_spill_mask: 0x00000000 
    CODE: (code_offset=0x00007201 size_offset=0x000071fc size=152)...
      0x00007200: f5bd5c00	subs    r12, sp, #8192
      0x00007204: f8dcc000	ldr.w   r12, [r12, #0]
      suspend point dex PC: 0x0000
      0x00007208: e92d41e0	push    {r5, r6, r7, r8, lr}
      0x0000720c: b087    	sub     sp, sp, #28
      0x0000720e: 1c05    	mov     r5, r0
      0x00007210: 9000    	str     r0, [sp, #0]
      0x00007212: 2600    	movs    r6, #0
      0x00007214: 68aa    	ldr     r2, [r5, #8]
      0x00007216: f8d2822c	ldr.w   r8, [r2, #556]
      0x0000721a: 4641    	mov     r1, r8
      0x0000721c: 6808    	ldr     r0, [r1, #0]
      suspend point dex PC: 0x0003
      GC map objects:  v2 (r8)
      0x0000721e: f8d001c4	ldr.w   r0, [r0, #452]
      0x00007222: f8d0e028	ldr.w   lr, [r0, #40]
      0x00007226: 47f0    	blx     lr
      suspend point dex PC: 0x0003
      GC map objects:  v2 (r8)
      0x00007228: 4680    	mov     r8, r0
      0x0000722a: 4546    	cmp     r6, r8
      0x0000722c: f2c08006	blt.w   +12 (0x0000723c)
      0x00007230: 3c01    	subs    r4, #1
      0x00007232: f0008022	beq.w   +68 (0x0000727a)
      0x00007236: b007    	add     sp, sp, #28
      0x00007238: e8bd81e0	pop     {r5, r6, r7, r8, pc}
      0x0000723c: 68ab    	ldr     r3, [r5, #8]
      0x0000723e: f8d3822c	ldr.w   r8, [r3, #556]
      0x00007242: 4641    	mov     r1, r8
      0x00007244: 1c32    	mov     r2, r6
      0x00007246: 6808    	ldr     r0, [r1, #0]
      suspend point dex PC: 0x000c
      GC map objects:  v2 (r8)
      0x00007248: f8d00208	ldr.w   r0, [r0, #520]
      0x0000724c: f8d0e028	ldr.w   lr, [r0, #40]
      0x00007250: 47f0    	blx     lr
      suspend point dex PC: 0x000c
      GC map objects:  v2 (r8)
      0x00007252: 1c07    	mov     r7, r0
      0x00007254: 1c29    	mov     r1, r5
      0x00007256: 690a    	ldr     r2, [r1, #16]
      0x00007258: 6b92    	ldr     r2, [r2, #56]
      0x0000725a: b192    	cbz     r2, +36 (0x00007282)
      0x0000725c: 1c38    	mov     r0, r7
      0x0000725e: b118    	cbz     r0, +6 (0x00007268)
      0x00007260: 6801    	ldr     r1, [r0, #0]
      0x00007262: 4291    	cmp     r1, r2
      0x00007264: f0408013	bne.w   +38 (0x0000728e)
      0x00007268: 1c39    	mov     r1, r7
      0x0000726a: 6808    	ldr     r0, [r1, #0]
      suspend point dex PC: 0x0012
      GC map objects:  v0 (r7), v2 (r8)
      0x0000726c: f8d001a4	ldr.w   r0, [r0, #420]
      0x00007270: f8d0e028	ldr.w   lr, [r0, #40]
      0x00007274: 47f0    	blx     lr
      suspend point dex PC: 0x0012
      GC map objects:  v0 (r7), v2 (r8)
      0x00007276: 1c76    	adds    r6, r6, #1
      0x00007278: e7cc    	b       -104 (0x00007214)
      0x0000727a: f8d9e230	ldr.w   lr, [r9, #560]  ; pTestSuspend
      0x0000727e: 47f0    	blx     lr
      suspend point dex PC: 0x0009
      0x00007280: e7d9    	b       -78 (0x00007236)
      0x00007282: f8d9e14c	ldr.w   lr, [r9, #332]  ; pInitializeType
      0x00007286: 200b    	movs    r0, #11
      0x00007288: 47f0    	blx     lr
      suspend point dex PC: 0x0010
      GC map objects:  v0 (r7), v2 (r8)
      0x0000728a: 1c02    	mov     r2, r0
      0x0000728c: e7e6    	b       -52 (0x0000725c)
      0x0000728e: f8d9e140	ldr.w   lr, [r9, #320]  ; pCheckCast
      0x00007292: 1c10    	mov     r0, r2
      0x00007294: 47f0    	blx     lr
      suspend point dex PC: 0x0010
      GC map objects:  v0 (r7), v2 (r8)
      0x00007296: e7e7    	b       -50 (0x00007268)
  10: void com.android.cm3.CaffeineMarkEmbeddedBenchmark.setAllRemote() (dex_method_idx=37) 9
    DEX CODE:
      0x0000: const/4 v1, #+0
      0x0001: sget-object  v2, Ljava/util/Vector; com.android.cm3.CaffeineMarkEmbeddedBenchmark.testSequence // field@17
      0x0003: invoke-virtual {v2}, int java.util.Vector.size() // method@143
      0x0006: move-result v2
      0x0007: if-lt v1, v2, +3
      0x0009: return-void
      0x000a: sget-object  v2, Ljava/util/Vector; com.android.cm3.CaffeineMarkEmbeddedBenchmark.testSequence // field@17
      0x000c: invoke-virtual {v2, v1}, java.lang.Object java.util.Vector.elementAt(int) // method@140
      0x000f: move-result-object v0
      0x0010: check-cast v0, com.android.cm3.BenchmarkUnit // type@11
      0x0012: invoke-virtual {v0}, void com.android.cm3.BenchmarkUnit.setRemote() // method@18
      0x0015: add-int/lit8 v1, v1, #+1
      0x0017: goto -22
    OatMethodOffsets (offset=0x00004528)
      code_offset: 0x000072b1 
      gc_map: (offset=0x00004a23)
    OatQuickMethodHeader (offset=0x00007298)
      mapping_table: (offset=0x00005234)
      vmap_table: (offset=0x00005608)
      v65534/r5, v1/r6, v0/r7, v2/r8, v65535/r15
    QuickMethodFrameInfo
      frame_size_in_bytes: 48
      core_spill_mask: 0x000081e0 (r5, r6, r7, r8, r15)
      fp_spill_mask: 0x00000000 
    CODE: (code_offset=0x000072b1 size_offset=0x000072ac size=152)...
      0x000072b0: f5bd5c00	subs    r12, sp, #8192
      0x000072b4: f8dcc000	ldr.w   r12, [r12, #0]
      suspend point dex PC: 0x0000
      0x000072b8: e92d41e0	push    {r5, r6, r7, r8, lr}
      0x000072bc: b087    	sub     sp, sp, #28
      0x000072be: 1c05    	mov     r5, r0
      0x000072c0: 9000    	str     r0, [sp, #0]
      0x000072c2: 2600    	movs    r6, #0
      0x000072c4: 68aa    	ldr     r2, [r5, #8]
      0x000072c6: f8d2822c	ldr.w   r8, [r2, #556]
      0x000072ca: 4641    	mov     r1, r8
      0x000072cc: 6808    	ldr     r0, [r1, #0]
      suspend point dex PC: 0x0003
      GC map objects:  v2 (r8)
      0x000072ce: f8d001c4	ldr.w   r0, [r0, #452]
      0x000072d2: f8d0e028	ldr.w   lr, [r0, #40]
      0x000072d6: 47f0    	blx     lr
      suspend point dex PC: 0x0003
      GC map objects:  v2 (r8)
      0x000072d8: 4680    	mov     r8, r0
      0x000072da: 4546    	cmp     r6, r8
      0x000072dc: f2c08006	blt.w   +12 (0x000072ec)
      0x000072e0: 3c01    	subs    r4, #1
      0x000072e2: f0008022	beq.w   +68 (0x0000732a)
      0x000072e6: b007    	add     sp, sp, #28
      0x000072e8: e8bd81e0	pop     {r5, r6, r7, r8, pc}
      0x000072ec: 68ab    	ldr     r3, [r5, #8]
      0x000072ee: f8d3822c	ldr.w   r8, [r3, #556]
      0x000072f2: 4641    	mov     r1, r8
      0x000072f4: 1c32    	mov     r2, r6
      0x000072f6: 6808    	ldr     r0, [r1, #0]
      suspend point dex PC: 0x000c
      GC map objects:  v2 (r8)
      0x000072f8: f8d00208	ldr.w   r0, [r0, #520]
      0x000072fc: f8d0e028	ldr.w   lr, [r0, #40]
      0x00007300: 47f0    	blx     lr
      suspend point dex PC: 0x000c
      GC map objects:  v2 (r8)
      0x00007302: 1c07    	mov     r7, r0
      0x00007304: 1c29    	mov     r1, r5
      0x00007306: 690a    	ldr     r2, [r1, #16]
      0x00007308: 6b92    	ldr     r2, [r2, #56]
      0x0000730a: b192    	cbz     r2, +36 (0x00007332)
      0x0000730c: 1c38    	mov     r0, r7
      0x0000730e: b118    	cbz     r0, +6 (0x00007318)
      0x00007310: 6801    	ldr     r1, [r0, #0]
      0x00007312: 4291    	cmp     r1, r2
      0x00007314: f0408013	bne.w   +38 (0x0000733e)
      0x00007318: 1c39    	mov     r1, r7
      0x0000731a: 6808    	ldr     r0, [r1, #0]
      suspend point dex PC: 0x0012
      GC map objects:  v0 (r7), v2 (r8)
      0x0000731c: f8d001a8	ldr.w   r0, [r0, #424]
      0x00007320: f8d0e028	ldr.w   lr, [r0, #40]
      0x00007324: 47f0    	blx     lr
      suspend point dex PC: 0x0012
      GC map objects:  v0 (r7), v2 (r8)
      0x00007326: 1c76    	adds    r6, r6, #1
      0x00007328: e7cc    	b       -104 (0x000072c4)
      0x0000732a: f8d9e230	ldr.w   lr, [r9, #560]  ; pTestSuspend
      0x0000732e: 47f0    	blx     lr
      suspend point dex PC: 0x0009
      0x00007330: e7d9    	b       -78 (0x000072e6)
      0x00007332: f8d9e14c	ldr.w   lr, [r9, #332]  ; pInitializeType
      0x00007336: 200b    	movs    r0, #11
      0x00007338: 47f0    	blx     lr
      suspend point dex PC: 0x0010
      GC map objects:  v0 (r7), v2 (r8)
      0x0000733a: 1c02    	mov     r2, r0
      0x0000733c: e7e6    	b       -52 (0x0000730c)
      0x0000733e: f8d9e140	ldr.w   lr, [r9, #320]  ; pCheckCast
      0x00007342: 1c10    	mov     r0, r2
      0x00007344: 47f0    	blx     lr
      suspend point dex PC: 0x0010
      GC map objects:  v0 (r7), v2 (r8)
      0x00007346: e7e7    	b       -50 (0x00007318)
  11: void com.android.cm3.CaffeineMarkEmbeddedBenchmark.setLocal(int) (dex_method_idx=38) 9
    DEX CODE:
      0x0000: const/4 v0, #+1
      0x0001: sput-boolean v0, Z com.android.cm3.CaffeineMarkEmbeddedBenchmark.isLocal // field@13
      0x0003: return-void
    OatMethodOffsets (offset=0x00004530)
      code_offset: 0x00007361 
      gc_map: (offset=0x00004a3b)
    OatQuickMethodHeader (offset=0x00007348)
      mapping_table: (offset=0x0000524a)
      vmap_table: (offset=0x0000560e)
      v65534/r5, v65535/r15
    QuickMethodFrameInfo
      frame_size_in_bytes: 32
      core_spill_mask: 0x00008020 (r5, r15)
      fp_spill_mask: 0x00000000 
    CODE: (code_offset=0x00007361 size_offset=0x0000735c size=44)...
      0x00007360: e92d4020	push    {r5, lr}
      0x00007364: b086    	sub     sp, sp, #24
      0x00007366: 1c05    	mov     r5, r0
      0x00007368: 9000    	str     r0, [sp, #0]
      0x0000736a: 9109    	str     r1, [sp, #36]
      0x0000736c: 68ab    	ldr     r3, [r5, #8]
      0x0000736e: 2201    	movs    r2, #1
      0x00007370: 9204    	str     r2, [sp, #16]
      0x00007372: f8c32250	str.w   r2, [r3, #592]
      0x00007376: 3c01    	subs    r4, #1
      0x00007378: f0008003	beq.w   +6 (0x00007382)
      0x0000737c: b006    	add     sp, sp, #24
      0x0000737e: e8bd8020	pop     {r5, pc}
      0x00007382: f8d9e230	ldr.w   lr, [r9, #560]  ; pTestSuspend
      0x00007386: 47f0    	blx     lr
      suspend point dex PC: 0x0003
      0x00007388: e7f8    	b       -16 (0x0000737c)
      0x0000738a: 0000    	lsls    r0, r0, #0
  12: void com.android.cm3.CaffeineMarkEmbeddedBenchmark.setNormalSequence() (dex_method_idx=39) 9
    DEX CODE:
      0x0000: const/4 v1, #+1
      0x0001: sget-object  v0, Ljava/util/Vector; com.android.cm3.CaffeineMarkEmbeddedBenchmark.testSequence // field@17
      0x0003: invoke-virtual {v0}, void java.util.Vector.removeAllElements() // method@141
      0x0006: sget-object  v0, Ljava/util/Vector; com.android.cm3.CaffeineMarkEmbeddedBenchmark.testResults // field@16
      0x0008: invoke-virtual {v0}, void java.util.Vector.removeAllElements() // method@141
      0x000b: const/4 v0, #+0
      0x000c: invoke-static {v0}, void com.android.cm3.CaffeineMarkEmbeddedBenchmark.addTest(int) // method@29
      0x000f: invoke-static {v1}, void com.android.cm3.CaffeineMarkEmbeddedBenchmark.addTest(int) // method@29
      0x0012: const/4 v0, #+2
      0x0013: invoke-static {v0}, void com.android.cm3.CaffeineMarkEmbeddedBenchmark.addTest(int) // method@29
      0x0016: const/4 v0, #+3
      0x0017: invoke-static {v0}, void com.android.cm3.CaffeineMarkEmbeddedBenchmark.addTest(int) // method@29
      0x001a: const/4 v0, #+4
      0x001b: invoke-static {v0}, void com.android.cm3.CaffeineMarkEmbeddedBenchmark.addTest(int) // method@29
      0x001e: const/4 v0, #+5
      0x001f: invoke-static {v0}, void com.android.cm3.CaffeineMarkEmbeddedBenchmark.addTest(int) // method@29
      0x0022: sput-boolean v1, Z com.android.cm3.CaffeineMarkEmbeddedBenchmark.isNormalSequence // field@14
      0x0024: return-void
    OatMethodOffsets (offset=0x00004538)
      code_offset: 0x000073a9 
      gc_map: (offset=0x00004a40)
    OatQuickMethodHeader (offset=0x00007390)
      mapping_table: (offset=0x0000524e)
      vmap_table: (offset=0x000055f7)
      v65534/r5, v0/r6, v65535/r15
    QuickMethodFrameInfo
      frame_size_in_bytes: 32
      core_spill_mask: 0x00008060 (r5, r6, r15)
      fp_spill_mask: 0x00000000 
    CODE: (code_offset=0x000073a9 size_offset=0x000073a4 size=200)...
      0x000073a8: f5bd5c00	subs    r12, sp, #8192
      0x000073ac: f8dcc000	ldr.w   r12, [r12, #0]
      suspend point dex PC: 0x0000
      0x000073b0: e92d4060	push    {r5, r6, lr}
      0x000073b4: b085    	sub     sp, sp, #20
      0x000073b6: 1c05    	mov     r5, r0
      0x000073b8: 9000    	str     r0, [sp, #0]
      0x000073ba: 68ab    	ldr     r3, [r5, #8]
      0x000073bc: 2201    	movs    r2, #1
      0x000073be: 9203    	str     r2, [sp, #12]
      0x000073c0: f8d3622c	ldr.w   r6, [r3, #556]
      0x000073c4: 1c31    	mov     r1, r6
      0x000073c6: 6808    	ldr     r0, [r1, #0]
      suspend point dex PC: 0x0003
      GC map objects:  v0 (r6)
      0x000073c8: f8d00228	ldr.w   r0, [r0, #552]
      0x000073cc: f8d0e028	ldr.w   lr, [r0, #40]
      0x000073d0: 47f0    	blx     lr
      suspend point dex PC: 0x0003
      GC map objects:  v0 (r6)
      0x000073d2: f8d5c008	ldr.w   r12, [r5, #8]
      0x000073d6: f8dc6228	ldr.w   r6, [r12, #552]
      0x000073da: 1c31    	mov     r1, r6
      0x000073dc: 6808    	ldr     r0, [r1, #0]
      suspend point dex PC: 0x0008
      GC map objects:  v0 (r6)
      0x000073de: f8d00228	ldr.w   r0, [r0, #552]
      0x000073e2: f8d0e028	ldr.w   lr, [r0, #40]
      0x000073e6: 47f0    	blx     lr
      suspend point dex PC: 0x0008
      GC map objects:  v0 (r6)
      0x000073e8: 2600    	movs    r6, #0
      0x000073ea: 1c28    	mov     r0, r5
      0x000073ec: 68c0    	ldr     r0, [r0, #12]
      0x000073ee: 1c31    	mov     r1, r6
      0x000073f0: f8d00080	ldr.w   r0, [r0, #128]
      0x000073f4: f8d0e028	ldr.w   lr, [r0, #40]
      0x000073f8: 47f0    	blx     lr
      suspend point dex PC: 0x000c
      0x000073fa: 1c28    	mov     r0, r5
      0x000073fc: 68c0    	ldr     r0, [r0, #12]
      0x000073fe: 2101    	movs    r1, #1
      0x00007400: f8d00080	ldr.w   r0, [r0, #128]
      0x00007404: f8d0e028	ldr.w   lr, [r0, #40]
      0x00007408: 47f0    	blx     lr
      suspend point dex PC: 0x000f
      0x0000740a: 2602    	movs    r6, #2
      0x0000740c: 1c28    	mov     r0, r5
      0x0000740e: 68c0    	ldr     r0, [r0, #12]
      0x00007410: 1c31    	mov     r1, r6
      0x00007412: f8d00080	ldr.w   r0, [r0, #128]
      0x00007416: f8d0e028	ldr.w   lr, [r0, #40]
      0x0000741a: 47f0    	blx     lr
      suspend point dex PC: 0x0013
      0x0000741c: 2603    	movs    r6, #3
      0x0000741e: 1c28    	mov     r0, r5
      0x00007420: 68c0    	ldr     r0, [r0, #12]
      0x00007422: 1c31    	mov     r1, r6
      0x00007424: f8d00080	ldr.w   r0, [r0, #128]
      0x00007428: f8d0e028	ldr.w   lr, [r0, #40]
      0x0000742c: 47f0    	blx     lr
      suspend point dex PC: 0x0017
      0x0000742e: 2604    	movs    r6, #4
      0x00007430: 1c28    	mov     r0, r5
      0x00007432: 68c0    	ldr     r0, [r0, #12]
      0x00007434: 1c31    	mov     r1, r6
      0x00007436: f8d00080	ldr.w   r0, [r0, #128]
      0x0000743a: f8d0e028	ldr.w   lr, [r0, #40]
      0x0000743e: 47f0    	blx     lr
      suspend point dex PC: 0x001b
      0x00007440: 2605    	movs    r6, #5
      0x00007442: 1c28    	mov     r0, r5
      0x00007444: 68c0    	ldr     r0, [r0, #12]
      0x00007446: 1c31    	mov     r1, r6
      0x00007448: f8d00080	ldr.w   r0, [r0, #128]
      0x0000744c: f8d0e028	ldr.w   lr, [r0, #40]
      0x00007450: 47f0    	blx     lr
      suspend point dex PC: 0x001f
      0x00007452: 68a8    	ldr     r0, [r5, #8]
      0x00007454: 2101    	movs    r1, #1
      0x00007456: f8c01254	str.w   r1, [r0, #596]
      0x0000745a: 3c01    	subs    r4, #1
      0x0000745c: f0008003	beq.w   +6 (0x00007466)
      0x00007460: b005    	add     sp, sp, #20
      0x00007462: e8bd8060	pop     {r5, r6, pc}
      0x00007466: f8d9e230	ldr.w   lr, [r9, #560]  ; pTestSuspend
      0x0000746a: 47f0    	blx     lr
      suspend point dex PC: 0x0024
      0x0000746c: e7f8    	b       -16 (0x00007460)
      0x0000746e: 0000    	lsls    r0, r0, #0
  13: void com.android.cm3.CaffeineMarkEmbeddedBenchmark.run() (dex_method_idx=35) 1
    DEX CODE:
      0x0000: const/4 v1, #+0
      0x0001: sget-object  v2, Ljava/util/Vector; com.android.cm3.CaffeineMarkEmbeddedBenchmark.testSequence // field@17
      0x0003: invoke-virtual {v2}, int java.util.Vector.size() // method@143
      0x0006: move-result v2
      0x0007: if-lt v1, v2, +25
      0x0009: sget-object  v2, Lcom/android/cm3/BenchmarkMonitor; com.android.cm3.CaffeineMarkEmbeddedBenchmark.monitor // field@15
      0x000b: if-eqz v2, +13
      0x000d: sget-object  v2, Lcom/android/cm3/BenchmarkMonitor; com.android.cm3.CaffeineMarkEmbeddedBenchmark.monitor // field@15
      0x000f: sget-object  v3, Ljava/util/Vector; com.android.cm3.CaffeineMarkEmbeddedBenchmark.testSequence // field@17
      0x0011: invoke-virtual {v3}, int java.util.Vector.size() // method@143
      0x0014: move-result v3
      0x0015: invoke-interface {v2, v1, v3}, boolean com.android.cm3.BenchmarkMonitor.status(int, int) // method@12
      0x0018: sget-boolean  v2, Z com.android.cm3.CaffeineMarkEmbeddedBenchmark.isNormalSequence // field@14
      0x001a: if-eqz v2, +5
      0x001c: const/4 v2, #+1
      0x001d: sput-boolean v2, Z com.android.cm3.CaffeineMarkEmbeddedBenchmark.isComplete // field@11
      0x001f: return-void
      0x0020: sget-object  v2, Lcom/android/cm3/BenchmarkMonitor; com.android.cm3.CaffeineMarkEmbeddedBenchmark.monitor // field@15
      0x0022: if-eqz v2, +19
      0x0024: invoke-static {}, void java.lang.Thread.yield() // method@134
      0x0027: sget-object  v2, Lcom/android/cm3/BenchmarkMonitor; com.android.cm3.CaffeineMarkEmbeddedBenchmark.monitor // field@15
      0x0029: sget-object  v3, Ljava/util/Vector; com.android.cm3.CaffeineMarkEmbeddedBenchmark.testSequence // field@17
      0x002b: invoke-virtual {v3}, int java.util.Vector.size() // method@143
      0x002e: move-result v3
      0x002f: invoke-interface {v2, v1, v3}, boolean com.android.cm3.BenchmarkMonitor.status(int, int) // method@12
      0x0032: move-result v2
      0x0033: if-eqz v2, -20
      0x0035: invoke-static {}, void java.lang.Thread.yield() // method@134
      0x0038: sget-object  v2, Ljava/util/Vector; com.android.cm3.CaffeineMarkEmbeddedBenchmark.testSequence // field@17
      0x003a: invoke-virtual {v2, v1}, java.lang.Object java.util.Vector.elementAt(int) // method@140
      0x003d: move-result-object v0
      0x003e: check-cast v0, com.android.cm3.BenchmarkUnit // type@11
      0x0040: sget-boolean  v2, Z com.android.cm3.CaffeineMarkEmbeddedBenchmark.isLocal // field@13
      0x0042: if-eqz v2, +5
      0x0044: invoke-virtual {v0}, void com.android.cm3.BenchmarkUnit.setLocal() // method@17
      0x0047: sget-object  v2, Ljava/util/Vector; com.android.cm3.CaffeineMarkEmbeddedBenchmark.testResults // field@16
      0x0049: new-instance v3, java.lang.Integer // type@36
      0x004b: invoke-virtual {v0}, int com.android.cm3.BenchmarkUnit.testScore() // method@21
      0x004e: move-result v4
      0x004f: invoke-direct {v3, v4}, void java.lang.Integer.<init>(int) // method@113
      0x0052: invoke-virtual {v2, v3, v1}, void java.util.Vector.setElementAt(java.lang.Object, int) // method@142
      0x0055: add-int/lit8 v1, v1, #+1
      0x0057: goto -86
    OatMethodOffsets (offset=0x00004540)
      code_offset: 0x00007489 
      gc_map: (offset=0x00004a5c)
    OatQuickMethodHeader (offset=0x00007470)
      mapping_table: (offset=0x00005268)
      vmap_table: (offset=0x00005611)
      v65534/r5, v1/r6, v3/r7, v2/r8, v0/r10, v4/r11, v65535/r15
    QuickMethodFrameInfo
      frame_size_in_bytes: 80
      core_spill_mask: 0x00008de0 (r5, r6, r7, r8, r10, r11, r15)
      fp_spill_mask: 0x00000000 
    CODE: (code_offset=0x00007489 size_offset=0x00007484 size=444)...
      0x00007488: f5bd5c00	subs    r12, sp, #8192
      0x0000748c: f8dcc000	ldr.w   r12, [r12, #0]
      suspend point dex PC: 0x0000
      GC map objects:  v5 ([sp + #84])
      0x00007490: e92d4de0	push    {r5, r6, r7, r8, r10, r11, lr}
      0x00007494: b08d    	sub     sp, sp, #52
      0x00007496: 1c05    	mov     r5, r0
      0x00007498: 9000    	str     r0, [sp, #0]
      0x0000749a: 9115    	str     r1, [sp, #84]
      0x0000749c: 2600    	movs    r6, #0
      0x0000749e: 68aa    	ldr     r2, [r5, #8]
      0x000074a0: f8d2822c	ldr.w   r8, [r2, #556]
      0x000074a4: 4641    	mov     r1, r8
      0x000074a6: 6808    	ldr     r0, [r1, #0]
      suspend point dex PC: 0x0003
      GC map objects:  v2 (r8), v5 ([sp + #84])
      0x000074a8: f8d001c4	ldr.w   r0, [r0, #452]
      0x000074ac: f8d0e028	ldr.w   lr, [r0, #40]
      0x000074b0: 47f0    	blx     lr
      suspend point dex PC: 0x0003
      GC map objects:  v2 (r8), v5 ([sp + #84])
      0x000074b2: 4680    	mov     r8, r0
      0x000074b4: 4546    	cmp     r6, r8
      0x000074b6: f2c08031	blt.w   +98 (0x0000751c)
      0x000074ba: 68ab    	ldr     r3, [r5, #8]
      0x000074bc: f8d38224	ldr.w   r8, [r3, #548]
      0x000074c0: f1b80f00	cmp.w   r8, #0
      0x000074c4: d019    	beq     +50 (0x000074fa)
      0x000074c6: f8d5c008	ldr.w   r12, [r5, #8]
      0x000074ca: 68a8    	ldr     r0, [r5, #8]
      0x000074cc: f8dc8224	ldr.w   r8, [r12, #548]
      0x000074d0: f8d0722c	ldr.w   r7, [r0, #556]
      0x000074d4: 1c39    	mov     r1, r7
      0x000074d6: 6808    	ldr     r0, [r1, #0]
      suspend point dex PC: 0x0011
      GC map objects:  v2 (r8), v3 (r7), v5 ([sp + #84])
      0x000074d8: f8d001c4	ldr.w   r0, [r0, #452]
      0x000074dc: f8d0e028	ldr.w   lr, [r0, #40]
      0x000074e0: 47f0    	blx     lr
      suspend point dex PC: 0x0011
      GC map objects:  v2 (r8), v3 (r7), v5 ([sp + #84])
      0x000074e2: 1c07    	mov     r7, r0
      0x000074e4: f04f0c0c	mov.w   r12, #12
      0x000074e8: 1c32    	mov     r2, r6
      0x000074ea: 4641    	mov     r1, r8
      0x000074ec: 1c3b    	mov     r3, r7
      0x000074ee: 6808    	ldr     r0, [r1, #0]
      suspend point dex PC: 0x0015
      GC map objects:  v2 (r8), v5 ([sp + #84])
      0x000074f0: f8d0009c	ldr.w   r0, [r0, #156]
      0x000074f4: f8d0e028	ldr.w   lr, [r0, #40]
      0x000074f8: 47f0    	blx     lr
      suspend point dex PC: 0x0015
      GC map objects:  v2 (r8), v5 ([sp + #84])
      0x000074fa: 68a9    	ldr     r1, [r5, #8]
      0x000074fc: f8d18254	ldr.w   r8, [r1, #596]
      0x00007500: f1b80f00	cmp.w   r8, #0
      0x00007504: d004    	beq     +8 (0x00007510)
      0x00007506: 68aa    	ldr     r2, [r5, #8]
      0x00007508: f04f0801	mov.w   r8, #1
      0x0000750c: f8c28248	str.w   r8, [r2, #584]
      0x00007510: 3c01    	subs    r4, #1
      0x00007512: f0008087	beq.w   +270 (0x00007624)
      0x00007516: b00d    	add     sp, sp, #52
      0x00007518: e8bd8de0	pop     {r5, r6, r7, r8, r10, r11, pc}
      0x0000751c: 68ab    	ldr     r3, [r5, #8]
      0x0000751e: f8d38224	ldr.w   r8, [r3, #548]
      0x00007522: f1b80f00	cmp.w   r8, #0
      0x00007526: d026    	beq     +76 (0x00007576)
      0x00007528: f6412e51	movw    lr, #6737
      0x0000752c: f2c71ee8	movt    lr, #29160
      0x00007530: f64c1098	movw    r0, #51608
      0x00007534: f6c67096	movt    r0, #28566
      0x00007538: 47f0    	blx     lr
      suspend point dex PC: 0x0024
      GC map objects:  v2 (r8), v5 ([sp + #84])
      0x0000753a: f8d5c008	ldr.w   r12, [r5, #8]
      0x0000753e: 68a8    	ldr     r0, [r5, #8]
      0x00007540: f8dc8224	ldr.w   r8, [r12, #548]
      0x00007544: f8d0722c	ldr.w   r7, [r0, #556]
      0x00007548: 1c39    	mov     r1, r7
      0x0000754a: 6808    	ldr     r0, [r1, #0]
      suspend point dex PC: 0x002b
      GC map objects:  v2 (r8), v3 (r7), v5 ([sp + #84])
      0x0000754c: f8d001c4	ldr.w   r0, [r0, #452]
      0x00007550: f8d0e028	ldr.w   lr, [r0, #40]
      0x00007554: 47f0    	blx     lr
      suspend point dex PC: 0x002b
      GC map objects:  v2 (r8), v3 (r7), v5 ([sp + #84])
      0x00007556: 1c07    	mov     r7, r0
      0x00007558: f04f0c0c	mov.w   r12, #12
      0x0000755c: 1c32    	mov     r2, r6
      0x0000755e: 4641    	mov     r1, r8
      0x00007560: 1c3b    	mov     r3, r7
      0x00007562: 6808    	ldr     r0, [r1, #0]
      suspend point dex PC: 0x002f
      GC map objects:  v2 (r8), v5 ([sp + #84])
      0x00007564: f8d0009c	ldr.w   r0, [r0, #156]
      0x00007568: f8d0e028	ldr.w   lr, [r0, #40]
      0x0000756c: 47f0    	blx     lr
      suspend point dex PC: 0x002f
      GC map objects:  v2 (r8), v5 ([sp + #84])
      0x0000756e: 4680    	mov     r8, r0
      0x00007570: f1b80f00	cmp.w   r8, #0
      0x00007574: d0cc    	beq     -104 (0x00007510)
      0x00007576: f6412e51	movw    lr, #6737
      0x0000757a: f2c71ee8	movt    lr, #29160
      0x0000757e: f64c1098	movw    r0, #51608
      0x00007582: f6c67096	movt    r0, #28566
      0x00007586: 47f0    	blx     lr
      suspend point dex PC: 0x0035
      GC map objects:  v5 ([sp + #84])
      0x00007588: 68a9    	ldr     r1, [r5, #8]
      0x0000758a: f8d1822c	ldr.w   r8, [r1, #556]
      0x0000758e: 4641    	mov     r1, r8
      0x00007590: 1c32    	mov     r2, r6
      0x00007592: 6808    	ldr     r0, [r1, #0]
      suspend point dex PC: 0x003a
      GC map objects:  v2 (r8), v5 ([sp + #84])
      0x00007594: f8d00208	ldr.w   r0, [r0, #520]
      0x00007598: f8d0e028	ldr.w   lr, [r0, #40]
      0x0000759c: 47f0    	blx     lr
      suspend point dex PC: 0x003a
      GC map objects:  v2 (r8), v5 ([sp + #84])
      0x0000759e: 4682    	mov     r10, r0
      0x000075a0: 1c29    	mov     r1, r5
      0x000075a2: 690a    	ldr     r2, [r1, #16]
      0x000075a4: 6b92    	ldr     r2, [r2, #56]
      0x000075a6: 2a00    	cmp     r2, #0
      0x000075a8: d040    	beq     +128 (0x0000762c)
      0x000075aa: 4650    	mov     r0, r10
      0x000075ac: b118    	cbz     r0, +6 (0x000075b6)
      0x000075ae: 6801    	ldr     r1, [r0, #0]
      0x000075b0: 4291    	cmp     r1, r2
      0x000075b2: f0408041	bne.w   +130 (0x00007638)
      0x000075b6: 68aa    	ldr     r2, [r5, #8]
      0x000075b8: f8d28250	ldr.w   r8, [r2, #592]
      0x000075bc: f1b80f00	cmp.w   r8, #0
      0x000075c0: d006    	beq     +12 (0x000075d0)
      0x000075c2: 4651    	mov     r1, r10
      0x000075c4: 6808    	ldr     r0, [r1, #0]
      suspend point dex PC: 0x0044
      GC map objects:  v0 (r10), v5 ([sp + #84])
      0x000075c6: f8d001a4	ldr.w   r0, [r0, #420]
      0x000075ca: f8d0e028	ldr.w   lr, [r0, #40]
      0x000075ce: 47f0    	blx     lr
      suspend point dex PC: 0x0044
      GC map objects:  v0 (r10), v5 ([sp + #84])
      0x000075d0: 68ab    	ldr     r3, [r5, #8]
      0x000075d2: f8d9e12c	ldr.w   lr, [r9, #300]  ; pAllocObjectInitialized
      0x000075d6: f8d38228	ldr.w   r8, [r3, #552]
      0x000075da: 1c29    	mov     r1, r5
      0x000075dc: f6483048	movw    r0, #35656
      0x000075e0: f6c67095	movt    r0, #28565
      0x000075e4: 47f0    	blx     lr
      suspend point dex PC: 0x0049
      GC map objects:  v0 (r10), v2 (r8), v5 ([sp + #84])
      0x000075e6: 1c07    	mov     r7, r0
      0x000075e8: 4651    	mov     r1, r10
      0x000075ea: 6808    	ldr     r0, [r1, #0]
      suspend point dex PC: 0x004b
      GC map objects:  v0 (r10), v2 (r8), v3 (r7), v5 ([sp + #84])
      0x000075ec: f8d001b4	ldr.w   r0, [r0, #436]
      0x000075f0: f8d0e028	ldr.w   lr, [r0, #40]
      0x000075f4: 47f0    	blx     lr
      suspend point dex PC: 0x004b
      GC map objects:  v0 (r10), v2 (r8), v3 (r7), v5 ([sp + #84])
      0x000075f6: 4683    	mov     r11, r0
      0x000075f8: f2442eb1	movw    lr, #17073
      0x000075fc: f2c71eed	movt    lr, #29165
      0x00007600: f6486000	movw    r0, #36352
      0x00007604: f6c67095	movt    r0, #28565
      0x00007608: 1c39    	mov     r1, r7
      0x0000760a: 465a    	mov     r2, r11
      0x0000760c: 47f0    	blx     lr
      suspend point dex PC: 0x004f
      GC map objects:  v0 (r10), v2 (r8), v3 (r7), v5 ([sp + #84])
      0x0000760e: 4641    	mov     r1, r8
      0x00007610: 1c3a    	mov     r2, r7
      0x00007612: 6808    	ldr     r0, [r1, #0]
      suspend point dex PC: 0x0052
      GC map objects:  v0 (r10), v2 (r8), v3 (r7), v5 ([sp + #84])
      0x00007614: f8d00234	ldr.w   r0, [r0, #564]
      0x00007618: 1c33    	mov     r3, r6
      0x0000761a: f8d0e028	ldr.w   lr, [r0, #40]
      0x0000761e: 47f0    	blx     lr
      suspend point dex PC: 0x0052
      GC map objects:  v0 (r10), v2 (r8), v3 (r7), v5 ([sp + #84])
      0x00007620: 1c76    	adds    r6, r6, #1
      0x00007622: e73c    	b       -392 (0x0000749e)
      0x00007624: f8d9e230	ldr.w   lr, [r9, #560]  ; pTestSuspend
      0x00007628: 47f0    	blx     lr
      suspend point dex PC: 0x001f
      0x0000762a: e774    	b       -280 (0x00007516)
      0x0000762c: f8d9e14c	ldr.w   lr, [r9, #332]  ; pInitializeType
      0x00007630: 200b    	movs    r0, #11
      0x00007632: 47f0    	blx     lr
      suspend point dex PC: 0x003e
      GC map objects:  v0 (r10), v2 (r8), v5 ([sp + #84])
      0x00007634: 1c02    	mov     r2, r0
      0x00007636: e7b8    	b       -144 (0x000075aa)
      0x00007638: f8d9e140	ldr.w   lr, [r9, #320]  ; pCheckCast
      0x0000763c: 1c10    	mov     r0, r2
      0x0000763e: 47f0    	blx     lr
      suspend point dex PC: 0x003e
      GC map objects:  v0 (r10), v2 (r8), v5 ([sp + #84])
      0x00007640: e7b9    	b       -142 (0x000075b6)
      0x00007642: 0000    	lsls    r0, r0, #0
5: Lcom/android/cm3/Date; (offset=0x00004548) (type_idx=14) (StatusInitialized) (OatClassAllCompiled)
  0: void com.android.cm3.Date.<init>() (dex_method_idx=40) 65537
    DEX CODE:
      0x0000: invoke-static {}, long java.lang.System.currentTimeMillis() // method@132
      0x0003: move-result-wide v0
      0x0004: invoke-direct {v2, v0, v1}, void com.android.cm3.Date.<init>(long) // method@41
      0x0007: return-void
    OatMethodOffsets (offset=0x0000454c)
      code_offset: 0x00007661 
      gc_map: (offset=0x00004aae)
    OatQuickMethodHeader (offset=0x00007648)
      mapping_table: (offset=0x0000529e)
      vmap_table: (offset=0x00005619)
      v65534/r5, v0/r6, v1/r7, v2/r8, v65535/r15
    QuickMethodFrameInfo
      frame_size_in_bytes: 48
      core_spill_mask: 0x000081e0 (r5, r6, r7, r8, r15)
      fp_spill_mask: 0x00000000 
    CODE: (code_offset=0x00007661 size_offset=0x0000765c size=80)...
      0x00007660: f5bd5c00	subs    r12, sp, #8192
      0x00007664: f8dcc000	ldr.w   r12, [r12, #0]
      suspend point dex PC: 0x0000
      GC map objects:  v2 (r8)
      0x00007668: e92d41e0	push    {r5, r6, r7, r8, lr}
      0x0000766c: b087    	sub     sp, sp, #28
      0x0000766e: 1c05    	mov     r5, r0
      0x00007670: 9000    	str     r0, [sp, #0]
      0x00007672: 4688    	mov     r8, r1
      0x00007674: 1c28    	mov     r0, r5
      0x00007676: 68c0    	ldr     r0, [r0, #12]
      0x00007678: f8d0021c	ldr.w   r0, [r0, #540]
      0x0000767c: f8d0e028	ldr.w   lr, [r0, #40]
      0x00007680: 47f0    	blx     lr
      suspend point dex PC: 0x0000
      GC map objects:  v2 (r8)
      0x00007682: 1c06    	mov     r6, r0
      0x00007684: 1c0f    	mov     r7, r1
      0x00007686: 1c28    	mov     r0, r5
      0x00007688: 68c0    	ldr     r0, [r0, #12]
      0x0000768a: 4641    	mov     r1, r8
      0x0000768c: 1c32    	mov     r2, r6
      0x0000768e: 1c3b    	mov     r3, r7
      0x00007690: f8d000b0	ldr.w   r0, [r0, #176]
      0x00007694: f8d0e028	ldr.w   lr, [r0, #40]
      0x00007698: 47f0    	blx     lr
      suspend point dex PC: 0x0004
      GC map objects:  v2 (r8)
      0x0000769a: 3c01    	subs    r4, #1
      0x0000769c: f0008003	beq.w   +6 (0x000076a6)
      0x000076a0: b007    	add     sp, sp, #28
      0x000076a2: e8bd81e0	pop     {r5, r6, r7, r8, pc}
      0x000076a6: f8d9e230	ldr.w   lr, [r9, #560]  ; pTestSuspend
      0x000076aa: 47f0    	blx     lr
      suspend point dex PC: 0x0007
      0x000076ac: e7f8    	b       -16 (0x000076a0)
      0x000076ae: 0000    	lsls    r0, r0, #0
  1: void com.android.cm3.Date.<init>(long) (dex_method_idx=41) 65537
    DEX CODE:
      0x0000: invoke-direct {v0}, void java.lang.Object.<init>() // method@120
      0x0003: iput-wide v1, v0, J com.android.cm3.Date.millis // field@18
      0x0005: return-void
    OatMethodOffsets (offset=0x00004554)
      code_offset: 0x000076c9 
      gc_map: (offset=0x00004aba)
    OatQuickMethodHeader (offset=0x000076b0)
      mapping_table: (offset=0x000052a8)
      vmap_table: (offset=0x0000561f)
      v0/r5, v1/r6, v2/r7, v65534/r8, v65535/r15
    QuickMethodFrameInfo
      frame_size_in_bytes: 32
      core_spill_mask: 0x000081e0 (r5, r6, r7, r8, r15)
      fp_spill_mask: 0x00000000 
    CODE: (code_offset=0x000076c9 size_offset=0x000076c4 size=68)...
      0x000076c8: f5bd5c00	subs    r12, sp, #8192
      0x000076cc: f8dcc000	ldr.w   r12, [r12, #0]
      suspend point dex PC: 0x0000
      GC map objects:  v0 (r5)
      0x000076d0: e92d41e0	push    {r5, r6, r7, r8, lr}
      0x000076d4: b083    	sub     sp, sp, #12
      0x000076d6: 4680    	mov     r8, r0
      0x000076d8: 9000    	str     r0, [sp, #0]
      0x000076da: 1c0d    	mov     r5, r1
      0x000076dc: 1c16    	mov     r6, r2
      0x000076de: 1c1f    	mov     r7, r3
      0x000076e0: f24b0e71	movw    lr, #45169
      0x000076e4: f2c71ee7	movt    lr, #29159
      0x000076e8: f24d3060	movw    r0, #54112
      0x000076ec: f6c6708c	movt    r0, #28556
      0x000076f0: 1c29    	mov     r1, r5
      0x000076f2: 47f0    	blx     lr
      suspend point dex PC: 0x0000
      GC map objects:  v0 (r5)
      0x000076f4: e9c56702	strd    r6,r7, [r5, #+8]
      0x000076f8: 3c01    	subs    r4, #1
      0x000076fa: f0008003	beq.w   +6 (0x00007704)
      0x000076fe: b003    	add     sp, sp, #12
      0x00007700: e8bd81e0	pop     {r5, r6, r7, r8, pc}
      0x00007704: f8d9e230	ldr.w   lr, [r9, #560]  ; pTestSuspend
      0x00007708: 47f0    	blx     lr
      suspend point dex PC: 0x0005
      0x0000770a: e7f8    	b       -16 (0x000076fe)
  2: boolean com.android.cm3.Date.equals(java.lang.Object) (dex_method_idx=42) 1
    DEX CODE:
      0x0000: if-eqz v5, +22
      0x0002: instance-of v0, v5, com.android.cm3.Date // type@14
      0x0004: if-eqz v0, +18
      0x0006: invoke-virtual {v4}, long com.android.cm3.Date.getTime() // method@43
      0x0009: move-result-wide v0
      0x000a: check-cast v5, com.android.cm3.Date // type@14
      0x000c: invoke-virtual {v5}, long com.android.cm3.Date.getTime() // method@43
      0x000f: move-result-wide v2
      0x0010: cmp-long v0, v0, v2
      0x0012: if-nez v0, +4
      0x0014: const/4 v0, #+1
      0x0015: return v0
      0x0016: const/4 v0, #+0
      0x0017: goto -2
    OatMethodOffsets (offset=0x0000455c)
      code_offset: 0x00007729 
      gc_map: (offset=0x00004ac4)
    OatQuickMethodHeader (offset=0x00007710)
      mapping_table: (offset=0x000052b0)
      vmap_table: (offset=0x00005625)
      v0/r5, v5/r6, v65534/r7, v1/r8, v2/r10, v3/r11, v65535/r15
    QuickMethodFrameInfo
      frame_size_in_bytes: 64
      core_spill_mask: 0x00008de0 (r5, r6, r7, r8, r10, r11, r15)
      fp_spill_mask: 0x00000000 
    CODE: (code_offset=0x00007729 size_offset=0x00007724 size=144)...
      0x00007728: f5bd5c00	subs    r12, sp, #8192
      0x0000772c: f8dcc000	ldr.w   r12, [r12, #0]
      suspend point dex PC: 0x0000
      GC map objects:  v4 ([sp + #68]), v5 (r6)
      0x00007730: e92d4de0	push    {r5, r6, r7, r8, r10, r11, lr}
      0x00007734: b089    	sub     sp, sp, #36
      0x00007736: 1c07    	mov     r7, r0
      0x00007738: 9000    	str     r0, [sp, #0]
      0x0000773a: 9111    	str     r1, [sp, #68]
      0x0000773c: 1c16    	mov     r6, r2
      0x0000773e: b36e    	cbz     r6, +90 (0x0000779c)
      0x00007740: 1c39    	mov     r1, r7
      0x00007742: 688a    	ldr     r2, [r1, #8]
      0x00007744: 1c30    	mov     r0, r6
      0x00007746: b138    	cbz     r0, +14 (0x00007758)
      0x00007748: 6801    	ldr     r1, [r0, #0]
      0x0000774a: f8d9e13c	ldr.w   lr, [r9, #316]  ; pInstanceofNonTrivial
      0x0000774e: 4291    	cmp     r1, r2
      0x00007750: bf0e    	itee    eq
      0x00007752: 2001    	movseq  r0, #1
      0x00007754: 1c10    	movne   r0, r2
      0x00007756: 47f0    	blxne   lr
      0x00007758: 1c05    	mov     r5, r0
      0x0000775a: b1fd    	cbz     r5, +62 (0x0000779c)
      0x0000775c: 9911    	ldr     r1, [sp, #68]
      0x0000775e: 6808    	ldr     r0, [r1, #0]
      0x00007760: f8d0019c	ldr.w   r0, [r0, #412]
      0x00007764: f8d0e028	ldr.w   lr, [r0, #40]
      0x00007768: 47f0    	blx     lr
      suspend point dex PC: 0x0006
      GC map objects:  v4 ([sp + #68]), v5 (r6)
      0x0000776a: 1c05    	mov     r5, r0
      0x0000776c: 4688    	mov     r8, r1
      0x0000776e: 1c31    	mov     r1, r6
      0x00007770: 6808    	ldr     r0, [r1, #0]
      0x00007772: f8d0019c	ldr.w   r0, [r0, #412]
      0x00007776: f8d0e028	ldr.w   lr, [r0, #40]
      0x0000777a: 47f0    	blx     lr
      suspend point dex PC: 0x000c
      GC map objects:  v4 ([sp + #68]), v5 (r6)
      0x0000777c: 4682    	mov     r10, r0
      0x0000777e: 468b    	mov     r11, r1
      0x00007780: 45d8    	cmp     r8, r11
      0x00007782: f040800b	bne.w   +22 (0x0000779c)
      0x00007786: 4555    	cmp     r5, r10
      0x00007788: f0408008	bne.w   +16 (0x0000779c)
      0x0000778c: 2501    	movs    r5, #1
      0x0000778e: 3c01    	subs    r4, #1
      0x00007790: f0008009	beq.w   +18 (0x000077a6)
      0x00007794: 1c28    	mov     r0, r5
      0x00007796: b009    	add     sp, sp, #36
      0x00007798: e8bd8de0	pop     {r5, r6, r7, r8, r10, r11, pc}
      0x0000779c: 2500    	movs    r5, #0
      0x0000779e: 3c01    	subs    r4, #1
      0x000077a0: f47faff5	bne.w   -22 (0x0000778e)
      0x000077a4: e003    	b       +6 (0x000077ae)
      0x000077a6: f8d9e230	ldr.w   lr, [r9, #560]  ; pTestSuspend
      0x000077aa: 47f0    	blx     lr
      suspend point dex PC: 0x0015
      0x000077ac: e7f2    	b       -28 (0x00007794)
      0x000077ae: f8d9e230	ldr.w   lr, [r9, #560]  ; pTestSuspend
      0x000077b2: 47f0    	blx     lr
      suspend point dex PC: 0x0017
      GC map objects:  v4 ([sp + #68]), v5 (r6)
      0x000077b4: e7eb    	b       -42 (0x0000778e)
      0x000077b6: 0000    	lsls    r0, r0, #0
  3: long com.android.cm3.Date.getTime() (dex_method_idx=43) 1
    DEX CODE:
      0x0000: iget-wide v0, v2, J com.android.cm3.Date.millis // field@18
      0x0002: return-wide v0
    OatMethodOffsets (offset=0x00004564)
      code_offset: 0x000077d1 
      gc_map: (offset=0x00004842)
    OatQuickMethodHeader (offset=0x000077b8)
      mapping_table: (offset=0x000050dc)
      vmap_table: (offset=0x000055db)
      
    QuickMethodFrameInfo
      frame_size_in_bytes: 0
      core_spill_mask: 0x00000000 
      fp_spill_mask: 0x00000000 
    CODE: (code_offset=0x000077d1 size_offset=0x000077cc size=8)...
      0x000077d0: e9d10102	ldrd    r0,r1, [r1, #+8]
      0x000077d4: 4770    	bx      lr
      0x000077d6: 0000    	lsls    r0, r0, #0
  4: int com.android.cm3.Date.hashCode() (dex_method_idx=44) 1
    DEX CODE:
      0x0000: invoke-virtual {v5}, long com.android.cm3.Date.getTime() // method@43
      0x0003: move-result-wide v0
      0x0004: long-to-int v2, v0
      0x0005: const/16 v3, #+32
      0x0007: shr-long v3, v0, v3
      0x0009: long-to-int v3, v3
      0x000a: xor-int/2addr v2, v3
      0x000b: return v2
    OatMethodOffsets (offset=0x0000456c)
      code_offset: 0x000077f1 
      gc_map: (offset=0x00004ad2)
    OatQuickMethodHeader (offset=0x000077d8)
      mapping_table: (offset=0x000052bc)
      vmap_table: (offset=0x0000562d)
      v0/r5, v1/r6, v2/r7, v3/r8, v4/r10, v5/r11, v65535/r15
    QuickMethodFrameInfo
      frame_size_in_bytes: 64
      core_spill_mask: 0x00008de0 (r5, r6, r7, r8, r10, r11, r15)
      fp_spill_mask: 0x00000000 
    CODE: (code_offset=0x000077f1 size_offset=0x000077ec size=76)...
      0x000077f0: f5bd5c00	subs    r12, sp, #8192
      0x000077f4: f8dcc000	ldr.w   r12, [r12, #0]
      suspend point dex PC: 0x0000
      GC map objects:  v5 (r11)
      0x000077f8: e92d4de0	push    {r5, r6, r7, r8, r10, r11, lr}
      0x000077fc: b089    	sub     sp, sp, #36
      0x000077fe: 9000    	str     r0, [sp, #0]
      0x00007800: 468b    	mov     r11, r1
      0x00007802: 4659    	mov     r1, r11
      0x00007804: 6808    	ldr     r0, [r1, #0]
      0x00007806: f8d0019c	ldr.w   r0, [r0, #412]
      0x0000780a: f8d0e028	ldr.w   lr, [r0, #40]
      0x0000780e: 47f0    	blx     lr
      suspend point dex PC: 0x0000
      GC map objects:  v5 (r11)
      0x00007810: 1c05    	mov     r5, r0
      0x00007812: 1c0e    	mov     r6, r1
      0x00007814: 1c2f    	mov     r7, r5
      0x00007816: f04f0820	mov.w   r8, #32
      0x0000781a: 46b0    	mov     r8, r6
      0x0000781c: ea4f7ae6	mov.w   r10, r6, asr #31
      0x00007820: ea870708	eor.w   r7, r7, r8
      0x00007824: 3c01    	subs    r4, #1
      0x00007826: f0008004	beq.w   +8 (0x00007832)
      0x0000782a: 1c38    	mov     r0, r7
      0x0000782c: b009    	add     sp, sp, #36
      0x0000782e: e8bd8de0	pop     {r5, r6, r7, r8, r10, r11, pc}
      0x00007832: f8d9e230	ldr.w   lr, [r9, #560]  ; pTestSuspend
      0x00007836: 47f0    	blx     lr
      suspend point dex PC: 0x000b
      0x00007838: e7f7    	b       -18 (0x0000782a)
      0x0000783a: 0000    	lsls    r0, r0, #0
  5: void com.android.cm3.Date.setTime(long) (dex_method_idx=45) 1
    DEX CODE:
      0x0000: iput-wide v1, v0, J com.android.cm3.Date.millis // field@18
      0x0002: return-void
    OatMethodOffsets (offset=0x00004574)
      code_offset: 0x00007859 
      gc_map: (offset=0x00004842)
    OatQuickMethodHeader (offset=0x00007840)
      mapping_table: (offset=0x000050dc)
      vmap_table: (offset=0x000055db)
      
    QuickMethodFrameInfo
      frame_size_in_bytes: 0
      core_spill_mask: 0x00000000 
      fp_spill_mask: 0x00000000 
    CODE: (code_offset=0x00007859 size_offset=0x00007854 size=8)...
      0x00007858: e9c12302	strd    r2,r3, [r1, #+8]
      0x0000785c: 4770    	bx      lr
      0x0000785e: 0000    	lsls    r0, r0, #0
6: Lcom/android/cm3/DateTime; (offset=0x0000457c) (type_idx=15) (StatusInitialized) (OatClassAllCompiled)
  0: void com.android.cm3.DateTime.<init>() (dex_method_idx=46) 65536
    DEX CODE:
      0x0000: invoke-direct {v0}, void java.lang.Object.<init>() // method@120
      0x0003: return-void
    OatMethodOffsets (offset=0x00004580)
      code_offset: 0x00007879 
      gc_map: (offset=0x00004838)
    OatQuickMethodHeader (offset=0x00007860)
      mapping_table: (offset=0x000050d4)
      vmap_table: (offset=0x000055d7)
      v0/r5, v65534/r6, v65535/r15
    QuickMethodFrameInfo
      frame_size_in_bytes: 32
      core_spill_mask: 0x00008060 (r5, r6, r15)
      fp_spill_mask: 0x00000000 
    CODE: (code_offset=0x00007879 size_offset=0x00007874 size=60)...
      0x00007878: f5bd5c00	subs    r12, sp, #8192
      0x0000787c: f8dcc000	ldr.w   r12, [r12, #0]
      suspend point dex PC: 0x0000
      GC map objects:  v0 (r5)
      0x00007880: e92d4060	push    {r5, r6, lr}
      0x00007884: b085    	sub     sp, sp, #20
      0x00007886: 1c06    	mov     r6, r0
      0x00007888: 9000    	str     r0, [sp, #0]
      0x0000788a: 1c0d    	mov     r5, r1
      0x0000788c: f24b0e71	movw    lr, #45169
      0x00007890: f2c71ee7	movt    lr, #29159
      0x00007894: f24d3060	movw    r0, #54112
      0x00007898: f6c6708c	movt    r0, #28556
      0x0000789c: 1c29    	mov     r1, r5
      0x0000789e: 47f0    	blx     lr
      suspend point dex PC: 0x0000
      GC map objects:  v0 (r5)
      0x000078a0: 3c01    	subs    r4, #1
      0x000078a2: f0008003	beq.w   +6 (0x000078ac)
      0x000078a6: b005    	add     sp, sp, #20
      0x000078a8: e8bd8060	pop     {r5, r6, pc}
      0x000078ac: f8d9e230	ldr.w   lr, [r9, #560]  ; pTestSuspend
      0x000078b0: 47f0    	blx     lr
      suspend point dex PC: 0x0003
      0x000078b2: e7f8    	b       -16 (0x000078a6)
  1: void com.android.cm3.DateTime.main(java.lang.String[]) (dex_method_idx=47) 9
    DEX CODE:
      0x0000: new-instance v0, java.util.Date // type@45
      0x0002: invoke-direct {v0}, void java.util.Date.<init>() // method@136
      0x0005: sget-object  v3, Ljava/io/PrintStream; java.lang.System.out // field@48
      0x0007: const-string v4, "Checking getTime ..." // string@15
      0x0009: invoke-virtual {v3, v4}, void java.io.PrintStream.println(java.lang.String) // method@110
      0x000c: const/4 v1, #+0
      0x000d: const v3, #+1000000
      0x0010: if-lt v1, v3, +57
      0x0012: sget-object  v3, Ljava/io/PrintStream; java.lang.System.out // field@48
      0x0014: new-instance v4, java.lang.StringBuilder // type@41
      0x0016: const-string v5, "After 1st million loop Time: " // string@7
      0x0018: invoke-direct {v4, v5}, void java.lang.StringBuilder.<init>(java.lang.String) // method@127
      0x001b: invoke-virtual {v0}, long java.util.Date.getTime() // method@137
      0x001e: move-result-wide v5
      0x001f: invoke-virtual {v4, v5, v6}, java.lang.StringBuilder java.lang.StringBuilder.append(long) // method@129
      0x0022: move-result-object v4
      0x0023: invoke-virtual {v4}, java.lang.String java.lang.StringBuilder.toString() // method@131
      0x0026: move-result-object v4
      0x0027: invoke-virtual {v3, v4}, void java.io.PrintStream.println(java.lang.String) // method@110
      0x002a: const/4 v2, #+0
      0x002b: const v3, #+10000000
      0x002e: if-lt v2, v3, +30
      0x0030: sget-object  v3, Ljava/io/PrintStream; java.lang.System.out // field@48
      0x0032: new-instance v4, java.lang.StringBuilder // type@41
      0x0034: const-string v5, "After  10 million loop Time: " // string@6
      0x0036: invoke-direct {v4, v5}, void java.lang.StringBuilder.<init>(java.lang.String) // method@127
      0x0039: invoke-virtual {v0}, long java.util.Date.getTime() // method@137
      0x003c: move-result-wide v5
      0x003d: invoke-virtual {v4, v5, v6}, java.lang.StringBuilder java.lang.StringBuilder.append(long) // method@129
      0x0040: move-result-object v4
      0x0041: invoke-virtual {v4}, java.lang.String java.lang.StringBuilder.toString() // method@131
      0x0044: move-result-object v4
      0x0045: invoke-virtual {v3, v4}, void java.io.PrintStream.println(java.lang.String) // method@110
      0x0048: return-void
      0x0049: add-int/lit8 v1, v1, #+1
      0x004b: goto -62
      0x004c: add-int/lit8 v2, v2, #+1
      0x004e: goto -35
    OatMethodOffsets (offset=0x00004588)
      code_offset: 0x000078d1 
      gc_map: (offset=0x00004adc)
    OatQuickMethodHeader (offset=0x000078b8)
      mapping_table: (offset=0x000052c4)
      vmap_table: (offset=0x00005635)
      v1/r5, v2/r6, v65534/r7, v4/r8, v3/r10, v5/r11, v65535/r15
    QuickMethodFrameInfo
      frame_size_in_bytes: 80
      core_spill_mask: 0x00008de0 (r5, r6, r7, r8, r10, r11, r15)
      fp_spill_mask: 0x00000000 
    CODE: (code_offset=0x000078d1 size_offset=0x000078cc size=560)...
      0x000078d0: f5bd5c00	subs    r12, sp, #8192
      0x000078d4: f8dcc000	ldr.w   r12, [r12, #0]
      suspend point dex PC: 0x0000
      GC map objects:  v7 ([sp + #84])
      0x000078d8: e92d4de0	push    {r5, r6, r7, r8, r10, r11, lr}
      0x000078dc: b08d    	sub     sp, sp, #52
      0x000078de: 1c07    	mov     r7, r0
      0x000078e0: 9000    	str     r0, [sp, #0]
      0x000078e2: 9115    	str     r1, [sp, #84]
      0x000078e4: f8d9e128	ldr.w   lr, [r9, #296]  ; pAllocObjectResolved
      0x000078e8: 1c39    	mov     r1, r7
      0x000078ea: f6424078	movw    r0, #11384
      0x000078ee: f6c6709e	movt    r0, #28574
      0x000078f2: 47f0    	blx     lr
      suspend point dex PC: 0x0000
      GC map objects:  v7 ([sp + #84])
      0x000078f4: 9005    	str     r0, [sp, #20]
      0x000078f6: f24f4e59	movw    lr, #62553
      0x000078fa: f2c71ef9	movt    lr, #29177
      0x000078fe: 9905    	ldr     r1, [sp, #20]
      0x00007900: f6427008	movw    r0, #12040
      0x00007904: f6c6709e	movt    r0, #28574
      0x00007908: 47f0    	blx     lr
      suspend point dex PC: 0x0002
      GC map objects:  v0 ([sp + #20]), v7 ([sp + #84])
      0x0000790a: 1c39    	mov     r1, r7
      0x0000790c: 6908    	ldr     r0, [r1, #16]
      0x0000790e: f8d000b4	ldr.w   r0, [r0, #180]
      0x00007912: 2800    	cmp     r0, #0
      0x00007914: f00080d1	beq.w   +418 (0x00007aba)
      0x00007918: 6e82    	ldr     r2, [r0, #104]
      0x0000791a: 2a0a    	cmp     r2, #10
      0x0000791c: f2c080cd	blt.w   +410 (0x00007aba)
      0x00007920: f3bf8f5b	dmb     ish
      0x00007924: f8d0a1ac	ldr.w   r10, [r0, #428]
      0x00007928: 6978    	ldr     r0, [r7, #20]
      0x0000792a: 6c80    	ldr     r0, [r0, #72]
      0x0000792c: 2800    	cmp     r0, #0
      0x0000792e: f00080c9	beq.w   +402 (0x00007ac4)
      0x00007932: 4680    	mov     r8, r0
      0x00007934: 4651    	mov     r1, r10
      0x00007936: 4642    	mov     r2, r8
      0x00007938: 6808    	ldr     r0, [r1, #0]
      suspend point dex PC: 0x0009
      GC map objects:  v0 ([sp + #20]), v3 (r10), v4 (r8), v7 ([sp + #84])
      0x0000793a: f8d00220	ldr.w   r0, [r0, #544]
      0x0000793e: f8d0e028	ldr.w   lr, [r0, #40]
      0x00007942: 47f0    	blx     lr
      suspend point dex PC: 0x0009
      GC map objects:  v0 ([sp + #20]), v3 (r10), v4 (r8), v7 ([sp + #84])
      0x00007944: 2500    	movs    r5, #0
      0x00007946: f2442a40	movw    r10, #16960
      0x0000794a: f2c00a0f	movt    r10, #15
      0x0000794e: 4555    	cmp     r5, r10
      0x00007950: f2c080ae	blt.w   +348 (0x00007ab0)
      0x00007954: 1c39    	mov     r1, r7
      0x00007956: 6908    	ldr     r0, [r1, #16]
      0x00007958: f8d9e12c	ldr.w   lr, [r9, #300]  ; pAllocObjectInitialized
      0x0000795c: f8d000b4	ldr.w   r0, [r0, #180]
      0x00007960: f8d0a1ac	ldr.w   r10, [r0, #428]
      0x00007964: 1c39    	mov     r1, r7
      0x00007966: f6451050	movw    r0, #22864
      0x0000796a: f6c67096	movt    r0, #28566
      0x0000796e: 47f0    	blx     lr
      suspend point dex PC: 0x0014
      GC map objects:  v0 ([sp + #20]), v3 (r10), v4 (r8), v7 ([sp + #84])
      0x00007970: 4680    	mov     r8, r0
      0x00007972: 6978    	ldr     r0, [r7, #20]
      0x00007974: 6a80    	ldr     r0, [r0, #40]
      0x00007976: 2800    	cmp     r0, #0
      0x00007978: f00080aa	beq.w   +340 (0x00007ad0)
      0x0000797c: 4683    	mov     r11, r0
      0x0000797e: f64a5eb1	movw    lr, #44465
      0x00007982: f2c71eef	movt    lr, #29167
      0x00007986: f6455010	movw    r0, #23824
      0x0000798a: f6c67096	movt    r0, #28566
      0x0000798e: 4641    	mov     r1, r8
      0x00007990: 465a    	mov     r2, r11
      0x00007992: 47f0    	blx     lr
      suspend point dex PC: 0x0018
      GC map objects:  v0 ([sp + #20]), v3 (r10), v4 (r8), v5 (r11), v7 ([sp + #84])
      0x00007994: 9905    	ldr     r1, [sp, #20]
      0x00007996: f6400e29	movw    lr, #2089
      0x0000799a: f2c71eee	movt    lr, #29166
      0x0000799e: f24370b8	movw    r0, #14264
      0x000079a2: f6c6709e	movt    r0, #28574
      0x000079a6: 47f0    	blx     lr
      suspend point dex PC: 0x001b
      GC map objects:  v0 ([sp + #20]), v3 (r10), v4 (r8), v5 (r11), v7 ([sp + #84])
      0x000079a8: e9cd010a	strd    r0,r1, [sp, #+40]
      0x000079ac: f24b3e89	movw    lr, #45961
      0x000079b0: f2c71eef	movt    lr, #29167
      0x000079b4: f24620c0	movw    r0, #25280
      0x000079b8: f6c67096	movt    r0, #28566
      0x000079bc: 4641    	mov     r1, r8
      0x000079be: e9dd230a	ldrd    r2,r3, [sp, #+40]
      0x000079c2: 47f0    	blx     lr
      suspend point dex PC: 0x001f
      GC map objects:  v0 ([sp + #20]), v3 (r10), v4 (r8), v7 ([sp + #84])
      0x000079c4: 4680    	mov     r8, r0
      0x000079c6: f64e0e29	movw    lr, #59433
      0x000079ca: f2c71eef	movt    lr, #29167
      0x000079ce: f64570f8	movw    r0, #24568
      0x000079d2: f6c67096	movt    r0, #28566
      0x000079d6: 4641    	mov     r1, r8
      0x000079d8: f8d1c000	ldr.w   r12, [r1, #0]
      suspend point dex PC: 0x0023
      GC map objects:  v0 ([sp + #20]), v3 (r10), v4 (r8), v7 ([sp + #84])
      0x000079dc: 47f0    	blx     lr
      suspend point dex PC: 0x0023
      GC map objects:  v0 ([sp + #20]), v3 (r10), v4 (r8), v7 ([sp + #84])
      0x000079de: 4680    	mov     r8, r0
      0x000079e0: 4651    	mov     r1, r10
      0x000079e2: 4642    	mov     r2, r8
      0x000079e4: 6808    	ldr     r0, [r1, #0]
      suspend point dex PC: 0x0027
      GC map objects:  v0 ([sp + #20]), v3 (r10), v4 (r8), v7 ([sp + #84])
      0x000079e6: f8d00220	ldr.w   r0, [r0, #544]
      0x000079ea: f8d0e028	ldr.w   lr, [r0, #40]
      0x000079ee: 47f0    	blx     lr
      suspend point dex PC: 0x0027
      GC map objects:  v0 ([sp + #20]), v3 (r10), v4 (r8), v7 ([sp + #84])
      0x000079f0: 2600    	movs    r6, #0
      0x000079f2: f2496a80	movw    r10, #38528
      0x000079f6: f2c00a98	movt    r10, #152
      0x000079fa: 4556    	cmp     r6, r10
      0x000079fc: f2c08053	blt.w   +166 (0x00007aa6)
      0x00007a00: 1c39    	mov     r1, r7
      0x00007a02: 6908    	ldr     r0, [r1, #16]
      0x00007a04: f8d9e12c	ldr.w   lr, [r9, #300]  ; pAllocObjectInitialized
      0x00007a08: f8d000b4	ldr.w   r0, [r0, #180]
      0x00007a0c: f8d0a1ac	ldr.w   r10, [r0, #428]
      0x00007a10: 1c39    	mov     r1, r7
      0x00007a12: f6451050	movw    r0, #22864
      0x00007a16: f6c67096	movt    r0, #28566
      0x00007a1a: 47f0    	blx     lr
      suspend point dex PC: 0x0032
      GC map objects:  v0 ([sp + #20]), v3 (r10), v4 (r8), v7 ([sp + #84])
      0x00007a1c: 4680    	mov     r8, r0
      0x00007a1e: 6978    	ldr     r0, [r7, #20]
      0x00007a20: 6a40    	ldr     r0, [r0, #36]
      0x00007a22: 2800    	cmp     r0, #0
      0x00007a24: d05a    	beq     +180 (0x00007adc)
      0x00007a26: 4683    	mov     r11, r0
      0x00007a28: f64a5eb1	movw    lr, #44465
      0x00007a2c: f2c71eef	movt    lr, #29167
      0x00007a30: f6455010	movw    r0, #23824
      0x00007a34: f6c67096	movt    r0, #28566
      0x00007a38: 4641    	mov     r1, r8
      0x00007a3a: 465a    	mov     r2, r11
      0x00007a3c: 47f0    	blx     lr
      suspend point dex PC: 0x0036
      GC map objects:  v0 ([sp + #20]), v3 (r10), v4 (r8), v5 (r11), v7 ([sp + #84])
      0x00007a3e: 9905    	ldr     r1, [sp, #20]
      0x00007a40: f6400e29	movw    lr, #2089
      0x00007a44: f2c71eee	movt    lr, #29166
      0x00007a48: f24370b8	movw    r0, #14264
      0x00007a4c: f6c6709e	movt    r0, #28574
      0x00007a50: 47f0    	blx     lr
      suspend point dex PC: 0x0039
      GC map objects:  v0 ([sp + #20]), v3 (r10), v4 (r8), v5 (r11), v7 ([sp + #84])
      0x00007a52: e9cd010a	strd    r0,r1, [sp, #+40]
      0x00007a56: f24b3e89	movw    lr, #45961
      0x00007a5a: f2c71eef	movt    lr, #29167
      0x00007a5e: f24620c0	movw    r0, #25280
      0x00007a62: f6c67096	movt    r0, #28566
      0x00007a66: 4641    	mov     r1, r8
      0x00007a68: e9dd230a	ldrd    r2,r3, [sp, #+40]
      0x00007a6c: 47f0    	blx     lr
      suspend point dex PC: 0x003d
      GC map objects:  v0 ([sp + #20]), v3 (r10), v4 (r8), v7 ([sp + #84])
      0x00007a6e: 4680    	mov     r8, r0
      0x00007a70: f64e0e29	movw    lr, #59433
      0x00007a74: f2c71eef	movt    lr, #29167
      0x00007a78: f64570f8	movw    r0, #24568
      0x00007a7c: f6c67096	movt    r0, #28566
      0x00007a80: 4641    	mov     r1, r8
      0x00007a82: f8d1c000	ldr.w   r12, [r1, #0]
      suspend point dex PC: 0x0041
      GC map objects:  v0 ([sp + #20]), v3 (r10), v4 (r8), v7 ([sp + #84])
      0x00007a86: 47f0    	blx     lr
      suspend point dex PC: 0x0041
      GC map objects:  v0 ([sp + #20]), v3 (r10), v4 (r8), v7 ([sp + #84])
      0x00007a88: 4680    	mov     r8, r0
      0x00007a8a: 4651    	mov     r1, r10
      0x00007a8c: 4642    	mov     r2, r8
      0x00007a8e: 6808    	ldr     r0, [r1, #0]
      suspend point dex PC: 0x0045
      GC map objects:  v0 ([sp + #20]), v3 (r10), v4 (r8), v7 ([sp + #84])
      0x00007a90: f8d00220	ldr.w   r0, [r0, #544]
      0x00007a94: f8d0e028	ldr.w   lr, [r0, #40]
      0x00007a98: 47f0    	blx     lr
      suspend point dex PC: 0x0045
      GC map objects:  v0 ([sp + #20]), v3 (r10), v4 (r8), v7 ([sp + #84])
      0x00007a9a: 3c01    	subs    r4, #1
      0x00007a9c: f0008024	beq.w   +72 (0x00007ae8)
      0x00007aa0: b00d    	add     sp, sp, #52
      0x00007aa2: e8bd8de0	pop     {r5, r6, r7, r8, r10, r11, pc}
      0x00007aa6: 1c76    	adds    r6, r6, #1
      0x00007aa8: 3c01    	subs    r4, #1
      0x00007aaa: f47fafa2	bne.w   -188 (0x000079f2)
      0x00007aae: e01f    	b       +62 (0x00007af0)
      0x00007ab0: 1c6d    	adds    r5, r5, #1
      0x00007ab2: 3c01    	subs    r4, #1
      0x00007ab4: f47faf47	bne.w   -370 (0x00007946)
      0x00007ab8: e01e    	b       +60 (0x00007af8)
      0x00007aba: f8d9e144	ldr.w   lr, [r9, #324]  ; pInitializeStaticStorage
      0x00007abe: 202a    	movs    r0, #42
      0x00007ac0: 47f0    	blx     lr
      suspend point dex PC: 0x0005
      GC map objects:  v0 ([sp + #20]), v7 ([sp + #84])
      0x00007ac2: e72d    	b       -422 (0x00007920)
      0x00007ac4: f8d9e150	ldr.w   lr, [r9, #336]  ; pResolveString
      0x00007ac8: 1c38    	mov     r0, r7
      0x00007aca: 210f    	movs    r1, #15
      0x00007acc: 47f0    	blx     lr
      suspend point dex PC: 0x0007
      GC map objects:  v0 ([sp + #20]), v3 (r10), v7 ([sp + #84])
      0x00007ace: e730    	b       -416 (0x00007932)
      0x00007ad0: f8d9e150	ldr.w   lr, [r9, #336]  ; pResolveString
      0x00007ad4: 1c38    	mov     r0, r7
      0x00007ad6: 2107    	movs    r1, #7
      0x00007ad8: 47f0    	blx     lr
      suspend point dex PC: 0x0016
      GC map objects:  v0 ([sp + #20]), v3 (r10), v4 (r8), v7 ([sp + #84])
      0x00007ada: e74f    	b       -354 (0x0000797c)
      0x00007adc: f8d9e150	ldr.w   lr, [r9, #336]  ; pResolveString
      0x00007ae0: 1c38    	mov     r0, r7
      0x00007ae2: 2106    	movs    r1, #6
      0x00007ae4: 47f0    	blx     lr
      suspend point dex PC: 0x0034
      GC map objects:  v0 ([sp + #20]), v3 (r10), v4 (r8), v7 ([sp + #84])
      0x00007ae6: e79e    	b       -196 (0x00007a26)
      0x00007ae8: f8d9e230	ldr.w   lr, [r9, #560]  ; pTestSuspend
      0x00007aec: 47f0    	blx     lr
      suspend point dex PC: 0x0048
      0x00007aee: e7d7    	b       -82 (0x00007aa0)
      0x00007af0: f8d9e230	ldr.w   lr, [r9, #560]  ; pTestSuspend
      0x00007af4: 47f0    	blx     lr
      suspend point dex PC: 0x004e
      GC map objects:  v0 ([sp + #20]), v4 (r8), v7 ([sp + #84])
      0x00007af6: e77c    	b       -264 (0x000079f2)
      0x00007af8: f8d9e230	ldr.w   lr, [r9, #560]  ; pTestSuspend
      0x00007afc: 47f0    	blx     lr
      suspend point dex PC: 0x004b
      GC map objects:  v0 ([sp + #20]), v4 (r8), v7 ([sp + #84])
      0x00007afe: e722    	b       -444 (0x00007946)
7: Lcom/android/cm3/Elapsed; (offset=0x00004590) (type_idx=16) (StatusInitialized) (OatClassAllCompiled)
  0: void com.android.cm3.Elapsed.<init>() (dex_method_idx=48) 65536
    DEX CODE:
      0x0000: invoke-direct {v0}, void java.lang.Object.<init>() // method@120
      0x0003: return-void
    OatMethodOffsets (offset=0x00004594)
      code_offset: 0x00007879 
      gc_map: (offset=0x00004838)
    OatQuickMethodHeader (offset=0x00007860)
      mapping_table: (offset=0x000050d4)
      vmap_table: (offset=0x000055d7)
      v0/r5, v65534/r6, v65535/r15
    QuickMethodFrameInfo
      frame_size_in_bytes: 32
      core_spill_mask: 0x00008060 (r5, r6, r15)
      fp_spill_mask: 0x00000000 
    CODE: (code_offset=0x00007879 size_offset=0x00007874 size=60)...
      0x00007878: f5bd5c00	subs    r12, sp, #8192
      0x0000787c: f8dcc000	ldr.w   r12, [r12, #0]
      suspend point dex PC: 0x0000
      GC map objects:  v0 (r5)
      0x00007880: e92d4060	push    {r5, r6, lr}
      0x00007884: b085    	sub     sp, sp, #20
      0x00007886: 1c06    	mov     r6, r0
      0x00007888: 9000    	str     r0, [sp, #0]
      0x0000788a: 1c0d    	mov     r5, r1
      0x0000788c: f24b0e71	movw    lr, #45169
      0x00007890: f2c71ee7	movt    lr, #29159
      0x00007894: f24d3060	movw    r0, #54112
      0x00007898: f6c6708c	movt    r0, #28556
      0x0000789c: 1c29    	mov     r1, r5
      0x0000789e: 47f0    	blx     lr
      suspend point dex PC: 0x0000
      GC map objects:  v0 (r5)
      0x000078a0: 3c01    	subs    r4, #1
      0x000078a2: f0008003	beq.w   +6 (0x000078ac)
      0x000078a6: b005    	add     sp, sp, #20
      0x000078a8: e8bd8060	pop     {r5, r6, pc}
      0x000078ac: f8d9e230	ldr.w   lr, [r9, #560]  ; pTestSuspend
      0x000078b0: 47f0    	blx     lr
      suspend point dex PC: 0x0003
      0x000078b2: e7f8    	b       -16 (0x000078a6)
  1: void com.android.cm3.Elapsed.main(java.lang.String[]) (dex_method_idx=49) 9
    DEX CODE:
      0x0000: sget-object  v7, Ljava/io/PrintStream; java.lang.System.out // field@48
      0x0002: const-string v8, "Timing a for loop from 0 to 1,000,000" // string@107
      0x0004: invoke-virtual {v7, v8}, void java.io.PrintStream.println(java.lang.String) // method@110
      0x0007: invoke-static {}, long java.lang.System.currentTimeMillis() // method@132
      0x000a: move-result-wide v5
      0x000b: sget-object  v7, Ljava/io/PrintStream; java.lang.System.out // field@48
      0x000d: new-instance v8, java.lang.StringBuilder // type@41
      0x000f: const-string v9, "start: " // string@230
      0x0011: invoke-direct {v8, v9}, void java.lang.StringBuilder.<init>(java.lang.String) // method@127
      0x0014: invoke-virtual {v8, v5, v6}, java.lang.StringBuilder java.lang.StringBuilder.append(long) // method@129
      0x0017: move-result-object v8
      0x0018: invoke-virtual {v8}, java.lang.String java.lang.StringBuilder.toString() // method@131
      0x001b: move-result-object v8
      0x001c: invoke-virtual {v7, v8}, void java.io.PrintStream.println(java.lang.String) // method@110
      0x001f: const/4 v4, #+0
      0x0020: const v7, #+1000000
      0x0023: if-lt v4, v7, +62
      0x0025: invoke-static {}, long java.lang.System.currentTimeMillis() // method@132
      0x0028: move-result-wide v2
      0x0029: sget-object  v7, Ljava/io/PrintStream; java.lang.System.out // field@48
      0x002b: new-instance v8, java.lang.StringBuilder // type@41
      0x002d: const-string v9, "end: " // string@149
      0x002f: invoke-direct {v8, v9}, void java.lang.StringBuilder.<init>(java.lang.String) // method@127
      0x0032: invoke-virtual {v8, v2, v3}, java.lang.StringBuilder java.lang.StringBuilder.append(long) // method@129
      0x0035: move-result-object v8
      0x0036: invoke-virtual {v8}, java.lang.String java.lang.StringBuilder.toString() // method@131
      0x0039: move-result-object v8
      0x003a: invoke-virtual {v7, v8}, void java.io.PrintStream.println(java.lang.String) // method@110
      0x003d: sub-long v0, v2, v5
      0x003f: sget-object  v7, Ljava/io/PrintStream; java.lang.System.out // field@48
      0x0041: new-instance v8, java.lang.StringBuilder // type@41
      0x0043: const-string v9, "Elapsed time: " // string@23
      0x0045: invoke-direct {v8, v9}, void java.lang.StringBuilder.<init>(java.lang.String) // method@127
      0x0048: invoke-virtual {v8, v0, v1}, java.lang.StringBuilder java.lang.StringBuilder.append(long) // method@129
      0x004b: move-result-object v8
      0x004c: invoke-virtual {v8}, java.lang.String java.lang.StringBuilder.toString() // method@131
      0x004f: move-result-object v8
      0x0050: invoke-virtual {v7, v8}, void java.io.PrintStream.println(java.lang.String) // method@110
      0x0053: const-wide/16 v7, #+0
      0x0055: cmp-long v7, v0, v7
      0x0057: if-lez v7, +13
      0x0059: sget-object  v7, Ljava/io/PrintStream; java.lang.System.out // field@48
      0x005b: const-string v8, "Elapsed time is greater than zero " // string@22
      0x005d: invoke-virtual {v7, v8}, void java.io.PrintStream.println(java.lang.String) // method@110
      0x0060: return-void
      0x0061: add-int/lit8 v4, v4, #+1
      0x0063: goto -67
      0x0064: sget-object  v7, Ljava/io/PrintStream; java.lang.System.out // field@48
      0x0066: const-string v8, "Elapsed time is equal to or less than zero " // string@21
      0x0068: invoke-virtual {v7, v8}, void java.io.PrintStream.println(java.lang.String) // method@110
      0x006b: goto -11
    OatMethodOffsets (offset=0x0000459c)
      code_offset: 0x00007b19 
      gc_map: (offset=0x00004b34)
    OatQuickMethodHeader (offset=0x00007b00)
      mapping_table: (offset=0x000052fe)
      vmap_table: (offset=0x0000563d)
      v4/r5, v65534/r6, v8/r7, v7/r8, v9/r10, v0/r11, v65535/r15
    QuickMethodFrameInfo
      frame_size_in_bytes: 96
      core_spill_mask: 0x00008de0 (r5, r6, r7, r8, r10, r11, r15)
      fp_spill_mask: 0x00000000 
    CODE: (code_offset=0x00007b19 size_offset=0x00007b14 size=776)...
      0x00007b18: f5bd5c00	subs    r12, sp, #8192
      0x00007b1c: f8dcc000	ldr.w   r12, [r12, #0]
      suspend point dex PC: 0x0000
      GC map objects:  v10 ([sp + #100])
      0x00007b20: e92d4de0	push    {r5, r6, r7, r8, r10, r11, lr}
      0x00007b24: b091    	sub     sp, sp, #68
      0x00007b26: 1c06    	mov     r6, r0
      0x00007b28: 9000    	str     r0, [sp, #0]
      0x00007b2a: 9119    	str     r1, [sp, #100]
      0x00007b2c: 1c31    	mov     r1, r6
      0x00007b2e: 6908    	ldr     r0, [r1, #16]
      0x00007b30: f8d000b4	ldr.w   r0, [r0, #180]
      0x00007b34: 2800    	cmp     r0, #0
      0x00007b36: f0008141	beq.w   +642 (0x00007dbc)
      0x00007b3a: 6e82    	ldr     r2, [r0, #104]
      0x00007b3c: 2a0a    	cmp     r2, #10
      0x00007b3e: f2c0813d	blt.w   +634 (0x00007dbc)
      0x00007b42: f3bf8f5b	dmb     ish
      0x00007b46: f8d081ac	ldr.w   r8, [r0, #428]
      0x00007b4a: 6970    	ldr     r0, [r6, #20]
      0x00007b4c: f8d001b8	ldr.w   r0, [r0, #440]
      0x00007b50: 2800    	cmp     r0, #0
      0x00007b52: f0008138	beq.w   +624 (0x00007dc6)
      0x00007b56: 1c07    	mov     r7, r0
      0x00007b58: 4641    	mov     r1, r8
      0x00007b5a: 1c3a    	mov     r2, r7
      0x00007b5c: 6808    	ldr     r0, [r1, #0]
      suspend point dex PC: 0x0004
      GC map objects:  v7 (r8), v8 (r7), v10 ([sp + #100])
      0x00007b5e: f8d00220	ldr.w   r0, [r0, #544]
      0x00007b62: f8d0e028	ldr.w   lr, [r0, #40]
      0x00007b66: 47f0    	blx     lr
      suspend point dex PC: 0x0004
      GC map objects:  v7 (r8), v8 (r7), v10 ([sp + #100])
      0x00007b68: 1c30    	mov     r0, r6
      0x00007b6a: 68c0    	ldr     r0, [r0, #12]
      0x00007b6c: f8d0021c	ldr.w   r0, [r0, #540]
      0x00007b70: f8d0e028	ldr.w   lr, [r0, #40]
      0x00007b74: 47f0    	blx     lr
      suspend point dex PC: 0x0007
      GC map objects:  v7 (r8), v8 (r7), v10 ([sp + #100])
      0x00007b76: f8d9e12c	ldr.w   lr, [r9, #300]  ; pAllocObjectInitialized
      0x00007b7a: e9cd010b	strd    r0,r1, [sp, #+44]
      0x00007b7e: 1c31    	mov     r1, r6
      0x00007b80: 6908    	ldr     r0, [r1, #16]
      0x00007b82: f8d000b4	ldr.w   r0, [r0, #180]
      0x00007b86: f8d081ac	ldr.w   r8, [r0, #428]
      0x00007b8a: 1c31    	mov     r1, r6
      0x00007b8c: f6451050	movw    r0, #22864
      0x00007b90: f6c67096	movt    r0, #28566
      0x00007b94: 47f0    	blx     lr
      suspend point dex PC: 0x000d
      GC map objects:  v7 (r8), v8 (r7), v10 ([sp + #100])
      0x00007b96: 1c07    	mov     r7, r0
      0x00007b98: 6970    	ldr     r0, [r6, #20]
      0x00007b9a: f8d003a4	ldr.w   r0, [r0, #932]
      0x00007b9e: 2800    	cmp     r0, #0
      0x00007ba0: f0008117	beq.w   +558 (0x00007dd2)
      0x00007ba4: 4682    	mov     r10, r0
      0x00007ba6: f64a5eb1	movw    lr, #44465
      0x00007baa: f2c71eef	movt    lr, #29167
      0x00007bae: f6455010	movw    r0, #23824
      0x00007bb2: f6c67096	movt    r0, #28566
      0x00007bb6: 1c39    	mov     r1, r7
      0x00007bb8: 4652    	mov     r2, r10
      0x00007bba: 47f0    	blx     lr
      suspend point dex PC: 0x0011
      GC map objects:  v7 (r8), v8 (r7), v9 (r10), v10 ([sp + #100])
      0x00007bbc: f24b3e89	movw    lr, #45961
      0x00007bc0: f2c71eef	movt    lr, #29167
      0x00007bc4: f24620c0	movw    r0, #25280
      0x00007bc8: f6c67096	movt    r0, #28566
      0x00007bcc: 1c39    	mov     r1, r7
      0x00007bce: e9dd230b	ldrd    r2,r3, [sp, #+44]
      0x00007bd2: 47f0    	blx     lr
      suspend point dex PC: 0x0014
      GC map objects:  v7 (r8), v8 (r7), v9 (r10), v10 ([sp + #100])
      0x00007bd4: 1c07    	mov     r7, r0
      0x00007bd6: f64e0e29	movw    lr, #59433
      0x00007bda: f2c71eef	movt    lr, #29167
      0x00007bde: f64570f8	movw    r0, #24568
      0x00007be2: f6c67096	movt    r0, #28566
      0x00007be6: 1c39    	mov     r1, r7
      0x00007be8: f8d1c000	ldr.w   r12, [r1, #0]
      suspend point dex PC: 0x0018
      GC map objects:  v7 (r8), v8 (r7), v9 (r10), v10 ([sp + #100])
      0x00007bec: 47f0    	blx     lr
      suspend point dex PC: 0x0018
      GC map objects:  v7 (r8), v8 (r7), v9 (r10), v10 ([sp + #100])
      0x00007bee: 1c07    	mov     r7, r0
      0x00007bf0: 4641    	mov     r1, r8
      0x00007bf2: 1c3a    	mov     r2, r7
      0x00007bf4: 6808    	ldr     r0, [r1, #0]
      suspend point dex PC: 0x001c
      GC map objects:  v7 (r8), v8 (r7), v9 (r10), v10 ([sp + #100])
      0x00007bf6: f8d00220	ldr.w   r0, [r0, #544]
      0x00007bfa: f8d0e028	ldr.w   lr, [r0, #40]
      0x00007bfe: 47f0    	blx     lr
      suspend point dex PC: 0x001c
      GC map objects:  v7 (r8), v8 (r7), v9 (r10), v10 ([sp + #100])
      0x00007c00: 2500    	movs    r5, #0
      0x00007c02: f2442840	movw    r8, #16960
      0x00007c06: f2c0080f	movt    r8, #15
      0x00007c0a: 4545    	cmp     r5, r8
      0x00007c0c: f2c080d1	blt.w   +418 (0x00007db2)
      0x00007c10: 1c30    	mov     r0, r6
      0x00007c12: 68c0    	ldr     r0, [r0, #12]
      0x00007c14: f8d0021c	ldr.w   r0, [r0, #540]
      0x00007c18: f8d0e028	ldr.w   lr, [r0, #40]
      0x00007c1c: 47f0    	blx     lr
      suspend point dex PC: 0x0025
      GC map objects:  v8 (r7), v9 (r10), v10 ([sp + #100])
      0x00007c1e: f8d9e12c	ldr.w   lr, [r9, #300]  ; pAllocObjectInitialized
      0x00007c22: e9cd0108	strd    r0,r1, [sp, #+32]
      0x00007c26: 1c31    	mov     r1, r6
      0x00007c28: 6908    	ldr     r0, [r1, #16]
      0x00007c2a: f8d000b4	ldr.w   r0, [r0, #180]
      0x00007c2e: f8d081ac	ldr.w   r8, [r0, #428]
      0x00007c32: 1c31    	mov     r1, r6
      0x00007c34: f6451050	movw    r0, #22864
      0x00007c38: f6c67096	movt    r0, #28566
      0x00007c3c: 47f0    	blx     lr
      suspend point dex PC: 0x002b
      GC map objects:  v7 (r8), v8 (r7), v9 (r10), v10 ([sp + #100])
      0x00007c3e: 1c07    	mov     r7, r0
      0x00007c40: 6970    	ldr     r0, [r6, #20]
      0x00007c42: f8d00260	ldr.w   r0, [r0, #608]
      0x00007c46: 2800    	cmp     r0, #0
      0x00007c48: f00080c9	beq.w   +402 (0x00007dde)
      0x00007c4c: 4682    	mov     r10, r0
      0x00007c4e: f64a5eb1	movw    lr, #44465
      0x00007c52: f2c71eef	movt    lr, #29167
      0x00007c56: f6455010	movw    r0, #23824
      0x00007c5a: f6c67096	movt    r0, #28566
      0x00007c5e: 1c39    	mov     r1, r7
      0x00007c60: 4652    	mov     r2, r10
      0x00007c62: 47f0    	blx     lr
      suspend point dex PC: 0x002f
      GC map objects:  v7 (r8), v8 (r7), v9 (r10), v10 ([sp + #100])
      0x00007c64: f24b3e89	movw    lr, #45961
      0x00007c68: f2c71eef	movt    lr, #29167
      0x00007c6c: f24620c0	movw    r0, #25280
      0x00007c70: f6c67096	movt    r0, #28566
      0x00007c74: 1c39    	mov     r1, r7
      0x00007c76: e9dd2308	ldrd    r2,r3, [sp, #+32]
      0x00007c7a: 47f0    	blx     lr
      suspend point dex PC: 0x0032
      GC map objects:  v7 (r8), v8 (r7), v9 (r10), v10 ([sp + #100])
      0x00007c7c: 1c07    	mov     r7, r0
      0x00007c7e: f64e0e29	movw    lr, #59433
      0x00007c82: f2c71eef	movt    lr, #29167
      0x00007c86: f64570f8	movw    r0, #24568
      0x00007c8a: f6c67096	movt    r0, #28566
      0x00007c8e: 1c39    	mov     r1, r7
      0x00007c90: f8d1c000	ldr.w   r12, [r1, #0]
      suspend point dex PC: 0x0036
      GC map objects:  v7 (r8), v8 (r7), v9 (r10), v10 ([sp + #100])
      0x00007c94: 47f0    	blx     lr
      suspend point dex PC: 0x0036
      GC map objects:  v7 (r8), v8 (r7), v9 (r10), v10 ([sp + #100])
      0x00007c96: 1c07    	mov     r7, r0
      0x00007c98: 4641    	mov     r1, r8
      0x00007c9a: 1c3a    	mov     r2, r7
      0x00007c9c: 6808    	ldr     r0, [r1, #0]
      suspend point dex PC: 0x003a
      GC map objects:  v7 (r8), v8 (r7), v9 (r10), v10 ([sp + #100])
      0x00007c9e: f8d00220	ldr.w   r0, [r0, #544]
      0x00007ca2: f8d0e028	ldr.w   lr, [r0, #40]
      0x00007ca6: 47f0    	blx     lr
      suspend point dex PC: 0x003a
      GC map objects:  v7 (r8), v8 (r7), v9 (r10), v10 ([sp + #100])
      0x00007ca8: e9dde008	ldrd    lr,r0, [sp, #+32]
      0x00007cac: e9dd120b	ldrd    r1,r2, [sp, #+44]
      0x00007cb0: ebbe0301	subs.w  r3, lr, r1
      0x00007cb4: eb700c02	sbcs.w  r12, r0, r2
      0x00007cb8: e9cd3c06	strd    r3,r12, [sp, #+24]
      0x00007cbc: 1c31    	mov     r1, r6
      0x00007cbe: 6908    	ldr     r0, [r1, #16]
      0x00007cc0: f8d9e12c	ldr.w   lr, [r9, #300]  ; pAllocObjectInitialized
      0x00007cc4: f8d000b4	ldr.w   r0, [r0, #180]
      0x00007cc8: f8d081ac	ldr.w   r8, [r0, #428]
      0x00007ccc: 1c31    	mov     r1, r6
      0x00007cce: f6451050	movw    r0, #22864
      0x00007cd2: f6c67096	movt    r0, #28566
      0x00007cd6: 47f0    	blx     lr
      suspend point dex PC: 0x0041
      GC map objects:  v7 (r8), v8 (r7), v9 (r10), v10 ([sp + #100])
      0x00007cd8: 1c07    	mov     r7, r0
      0x00007cda: 6970    	ldr     r0, [r6, #20]
      0x00007cdc: 6e80    	ldr     r0, [r0, #104]
      0x00007cde: 2800    	cmp     r0, #0
      0x00007ce0: f0008083	beq.w   +262 (0x00007dea)
      0x00007ce4: 4682    	mov     r10, r0
      0x00007ce6: f64a5eb1	movw    lr, #44465
      0x00007cea: f2c71eef	movt    lr, #29167
      0x00007cee: f6455010	movw    r0, #23824
      0x00007cf2: f6c67096	movt    r0, #28566
      0x00007cf6: 1c39    	mov     r1, r7
      0x00007cf8: 4652    	mov     r2, r10
      0x00007cfa: 47f0    	blx     lr
      suspend point dex PC: 0x0045
      GC map objects:  v7 (r8), v8 (r7), v9 (r10), v10 ([sp + #100])
      0x00007cfc: f24b3e89	movw    lr, #45961
      0x00007d00: f2c71eef	movt    lr, #29167
      0x00007d04: f24620c0	movw    r0, #25280
      0x00007d08: f6c67096	movt    r0, #28566
      0x00007d0c: 1c39    	mov     r1, r7
      0x00007d0e: e9dd2306	ldrd    r2,r3, [sp, #+24]
      0x00007d12: 47f0    	blx     lr
      suspend point dex PC: 0x0048
      GC map objects:  v7 (r8), v8 (r7), v9 (r10), v10 ([sp + #100])
      0x00007d14: 1c07    	mov     r7, r0
      0x00007d16: f64e0e29	movw    lr, #59433
      0x00007d1a: f2c71eef	movt    lr, #29167
      0x00007d1e: f64570f8	movw    r0, #24568
      0x00007d22: f6c67096	movt    r0, #28566
      0x00007d26: 1c39    	mov     r1, r7
      0x00007d28: f8d1c000	ldr.w   r12, [r1, #0]
      suspend point dex PC: 0x004c
      GC map objects:  v7 (r8), v8 (r7), v9 (r10), v10 ([sp + #100])
      0x00007d2c: 47f0    	blx     lr
      suspend point dex PC: 0x004c
      GC map objects:  v7 (r8), v8 (r7), v9 (r10), v10 ([sp + #100])
      0x00007d2e: 1c07    	mov     r7, r0
      0x00007d30: 4641    	mov     r1, r8
      0x00007d32: 1c3a    	mov     r2, r7
      0x00007d34: 6808    	ldr     r0, [r1, #0]
      suspend point dex PC: 0x0050
      GC map objects:  v7 (r8), v8 (r7), v9 (r10), v10 ([sp + #100])
      0x00007d36: f8d00220	ldr.w   r0, [r0, #544]
      0x00007d3a: f8d0e028	ldr.w   lr, [r0, #40]
      0x00007d3e: 47f0    	blx     lr
      suspend point dex PC: 0x0050
      GC map objects:  v7 (r8), v8 (r7), v9 (r10), v10 ([sp + #100])
      0x00007d40: f04f0800	mov.w   r8, #0
      0x00007d44: 2700    	movs    r7, #0
      0x00007d46: e9dd0106	ldrd    r0,r1, [sp, #+24]
      0x00007d4a: 42b9    	cmp     r1, r7
      0x00007d4c: f2c0801e	blt.w   +60 (0x00007d8c)
      0x00007d50: f3008003	bgt.w   +6 (0x00007d5a)
      0x00007d54: 4540    	cmp     r0, r8
      0x00007d56: f2408019	bls.w   +50 (0x00007d8c)
      0x00007d5a: 1c31    	mov     r1, r6
      0x00007d5c: 6908    	ldr     r0, [r1, #16]
      0x00007d5e: f8d000b4	ldr.w   r0, [r0, #180]
      0x00007d62: f8d081ac	ldr.w   r8, [r0, #428]
      0x00007d66: 6970    	ldr     r0, [r6, #20]
      0x00007d68: 6e40    	ldr     r0, [r0, #100]
      0x00007d6a: 2800    	cmp     r0, #0
      0x00007d6c: d043    	beq     +134 (0x00007df6)
      0x00007d6e: 1c07    	mov     r7, r0
      0x00007d70: 4641    	mov     r1, r8
      0x00007d72: 1c3a    	mov     r2, r7
      0x00007d74: 6808    	ldr     r0, [r1, #0]
      suspend point dex PC: 0x005d
      GC map objects:  v7 (r8), v8 (r7), v9 (r10), v10 ([sp + #100])
      0x00007d76: f8d00220	ldr.w   r0, [r0, #544]
      0x00007d7a: f8d0e028	ldr.w   lr, [r0, #40]
      0x00007d7e: 47f0    	blx     lr
      suspend point dex PC: 0x005d
      GC map objects:  v7 (r8), v8 (r7), v9 (r10), v10 ([sp + #100])
      0x00007d80: 3c01    	subs    r4, #1
      0x00007d82: f000803e	beq.w   +124 (0x00007e02)
      0x00007d86: b011    	add     sp, sp, #68
      0x00007d88: e8bd8de0	pop     {r5, r6, r7, r8, r10, r11, pc}
      0x00007d8c: 1c31    	mov     r1, r6
      0x00007d8e: 6908    	ldr     r0, [r1, #16]
      0x00007d90: f8d000b4	ldr.w   r0, [r0, #180]
      0x00007d94: f8d081ac	ldr.w   r8, [r0, #428]
      0x00007d98: 6970    	ldr     r0, [r6, #20]
      0x00007d9a: 6e00    	ldr     r0, [r0, #96]
      0x00007d9c: b3a8    	cbz     r0, +106 (0x00007e0a)
      0x00007d9e: 1c07    	mov     r7, r0
      0x00007da0: 4641    	mov     r1, r8
      0x00007da2: 1c3a    	mov     r2, r7
      0x00007da4: 6808    	ldr     r0, [r1, #0]
      suspend point dex PC: 0x0068
      GC map objects:  v7 (r8), v8 (r7), v9 (r10), v10 ([sp + #100])
      0x00007da6: f8d00220	ldr.w   r0, [r0, #544]
      0x00007daa: f8d0e028	ldr.w   lr, [r0, #40]
      0x00007dae: 47f0    	blx     lr
      suspend point dex PC: 0x0068
      GC map objects:  v7 (r8), v8 (r7), v9 (r10), v10 ([sp + #100])
      0x00007db0: e7e6    	b       -52 (0x00007d80)
      0x00007db2: 1c6d    	adds    r5, r5, #1
      0x00007db4: 3c01    	subs    r4, #1
      0x00007db6: f47faf24	bne.w   -440 (0x00007c02)
      0x00007dba: e02c    	b       +88 (0x00007e16)
      0x00007dbc: f8d9e144	ldr.w   lr, [r9, #324]  ; pInitializeStaticStorage
      0x00007dc0: 202a    	movs    r0, #42
      0x00007dc2: 47f0    	blx     lr
      suspend point dex PC: 0x0000
      GC map objects:  v10 ([sp + #100])
      0x00007dc4: e6bd    	b       -646 (0x00007b42)
      0x00007dc6: f8d9e150	ldr.w   lr, [r9, #336]  ; pResolveString
      0x00007dca: 1c30    	mov     r0, r6
      0x00007dcc: 216b    	movs    r1, #107
      0x00007dce: 47f0    	blx     lr
      suspend point dex PC: 0x0002
      GC map objects:  v7 (r8), v10 ([sp + #100])
      0x00007dd0: e6c1    	b       -638 (0x00007b56)
      0x00007dd2: f8d9e150	ldr.w   lr, [r9, #336]  ; pResolveString
      0x00007dd6: 1c30    	mov     r0, r6
      0x00007dd8: 21e6    	movs    r1, #230
      0x00007dda: 47f0    	blx     lr
      suspend point dex PC: 0x000f
      GC map objects:  v7 (r8), v8 (r7), v10 ([sp + #100])
      0x00007ddc: e6e2    	b       -572 (0x00007ba4)
      0x00007dde: f8d9e150	ldr.w   lr, [r9, #336]  ; pResolveString
      0x00007de2: 1c30    	mov     r0, r6
      0x00007de4: 2195    	movs    r1, #149
      0x00007de6: 47f0    	blx     lr
      suspend point dex PC: 0x002d
      GC map objects:  v7 (r8), v8 (r7), v9 (r10), v10 ([sp + #100])
      0x00007de8: e730    	b       -416 (0x00007c4c)
      0x00007dea: f8d9e150	ldr.w   lr, [r9, #336]  ; pResolveString
      0x00007dee: 1c30    	mov     r0, r6
      0x00007df0: 2117    	movs    r1, #23
      0x00007df2: 47f0    	blx     lr
      suspend point dex PC: 0x0043
      GC map objects:  v7 (r8), v8 (r7), v9 (r10), v10 ([sp + #100])
      0x00007df4: e776    	b       -276 (0x00007ce4)
      0x00007df6: f8d9e150	ldr.w   lr, [r9, #336]  ; pResolveString
      0x00007dfa: 1c30    	mov     r0, r6
      0x00007dfc: 2116    	movs    r1, #22
      0x00007dfe: 47f0    	blx     lr
      suspend point dex PC: 0x005b
      GC map objects:  v7 (r8), v9 (r10), v10 ([sp + #100])
      0x00007e00: e7b5    	b       -150 (0x00007d6e)
      0x00007e02: f8d9e230	ldr.w   lr, [r9, #560]  ; pTestSuspend
      0x00007e06: 47f0    	blx     lr
      suspend point dex PC: 0x0060
      0x00007e08: e7bd    	b       -134 (0x00007d86)
      0x00007e0a: f8d9e150	ldr.w   lr, [r9, #336]  ; pResolveString
      0x00007e0e: 1c30    	mov     r0, r6
      0x00007e10: 2115    	movs    r1, #21
      0x00007e12: 47f0    	blx     lr
      suspend point dex PC: 0x0066
      GC map objects:  v7 (r8), v9 (r10), v10 ([sp + #100])
      0x00007e14: e7c3    	b       -122 (0x00007d9e)
      0x00007e16: f8d9e230	ldr.w   lr, [r9, #560]  ; pTestSuspend
      0x00007e1a: 47f0    	blx     lr
      suspend point dex PC: 0x0063
      GC map objects:  v8 (r7), v9 (r10), v10 ([sp + #100])
      0x00007e1c: e6f1    	b       -542 (0x00007c02)
      0x00007e1e: 0000    	lsls    r0, r0, #0
8: Lcom/android/cm3/FloatAtom; (offset=0x000045a4) (type_idx=17) (StatusInitialized) (OatClassAllCompiled)
  0: void com.android.cm3.FloatAtom.<init>() (dex_method_idx=50) 65537
    DEX CODE:
      0x0000: invoke-direct {v1}, void java.lang.Object.<init>() // method@120
      0x0003: const/16 v0, #+20
      0x0005: iput v0, v1, I com.android.cm3.FloatAtom.POINTCOUNT // field@20
      0x0007: const/16 v0, #+185
      0x0009: iput v0, v1, I com.android.cm3.FloatAtom.wMaxDegrees // field@23
      0x000b: return-void
    OatMethodOffsets (offset=0x000045a8)
      code_offset: 0x00007e39 
      gc_map: (offset=0x00004bd4)
    OatQuickMethodHeader (offset=0x00007e20)
      mapping_table: (offset=0x0000534f)
      vmap_table: (offset=0x00005645)
      v1/r5, v65534/r6, v65535/r15
    QuickMethodFrameInfo
      frame_size_in_bytes: 32
      core_spill_mask: 0x00008060 (r5, r6, r15)
      fp_spill_mask: 0x00000000 
    CODE: (code_offset=0x00007e39 size_offset=0x00007e34 size=76)...
      0x00007e38: f5bd5c00	subs    r12, sp, #8192
      0x00007e3c: f8dcc000	ldr.w   r12, [r12, #0]
      suspend point dex PC: 0x0000
      GC map objects:  v1 (r5)
      0x00007e40: e92d4060	push    {r5, r6, lr}
      0x00007e44: b085    	sub     sp, sp, #20
      0x00007e46: 1c06    	mov     r6, r0
      0x00007e48: 9000    	str     r0, [sp, #0]
      0x00007e4a: 1c0d    	mov     r5, r1
      0x00007e4c: f24b0e71	movw    lr, #45169
      0x00007e50: f2c71ee7	movt    lr, #29159
      0x00007e54: f24d3060	movw    r0, #54112
      0x00007e58: f6c6708c	movt    r0, #28556
      0x00007e5c: 1c29    	mov     r1, r5
      0x00007e5e: 47f0    	blx     lr
      suspend point dex PC: 0x0000
      GC map objects:  v1 (r5)
      0x00007e60: 2214    	movs    r2, #20
      0x00007e62: 61aa    	str     r2, [r5, #24]
      0x00007e64: 22b9    	movs    r2, #185
      0x00007e66: 9203    	str     r2, [sp, #12]
      0x00007e68: 61ea    	str     r2, [r5, #28]
      0x00007e6a: f3bf8f5a	dmb     ishst
      0x00007e6e: 3c01    	subs    r4, #1
      0x00007e70: f0008003	beq.w   +6 (0x00007e7a)
      0x00007e74: b005    	add     sp, sp, #20
      0x00007e76: e8bd8060	pop     {r5, r6, pc}
      0x00007e7a: f8d9e230	ldr.w   lr, [r9, #560]  ; pTestSuspend
      0x00007e7e: 47f0    	blx     lr
      suspend point dex PC: 0x000b
      0x00007e80: e7f8    	b       -16 (0x00007e74)
      0x00007e82: 0000    	lsls    r0, r0, #0
  1: int com.android.cm3.FloatAtom.cleanUp() (dex_method_idx=51) 1
    DEX CODE:
      0x0000: const/4 v0, #+0
      0x0001: return v0
    OatMethodOffsets (offset=0x000045b0)
      code_offset: 0x00007ea1 
      gc_map: (offset=0x00004842)
    OatQuickMethodHeader (offset=0x00007e88)
      mapping_table: (offset=0x000050dc)
      vmap_table: (offset=0x000055db)
      
    QuickMethodFrameInfo
      frame_size_in_bytes: 0
      core_spill_mask: 0x00000000 
      fp_spill_mask: 0x00000000 
    CODE: (code_offset=0x00007ea1 size_offset=0x00007e9c size=4)...
      0x00007ea0: 2000    	movs    r0, #0
      0x00007ea2: 4770    	bx      lr
  2: int com.android.cm3.FloatAtom.defaultMagnification() (dex_method_idx=52) 1
    DEX CODE:
      0x0000: const/16 v0, #+4449
      0x0002: return v0
    OatMethodOffsets (offset=0x000045b8)
      code_offset: 0x00007ec1 
      gc_map: (offset=0x00004842)
    OatQuickMethodHeader (offset=0x00007ea8)
      mapping_table: (offset=0x000050dc)
      vmap_table: (offset=0x000055db)
      
    QuickMethodFrameInfo
      frame_size_in_bytes: 0
      core_spill_mask: 0x00000000 
      fp_spill_mask: 0x00000000 
    CODE: (code_offset=0x00007ec1 size_offset=0x00007ebc size=8)...
      0x00007ec0: f2411061	movw    r0, #4449
      0x00007ec4: 4770    	bx      lr
      0x00007ec6: 0000    	lsls    r0, r0, #0
  3: int com.android.cm3.FloatAtom.execute() (dex_method_idx=53) 1
    DEX CODE:
      0x0000: const/4 v8, #+0
      0x0001: move-object/from16 v0, v18
      0x0003: iget v0, v0, I com.android.cm3.FloatAtom.wMaxDegrees // field@23
      0x0005: move v11, v0
      0x0006: if-lt v8, v11, +3
      0x0008: return v8
      0x0009: int-to-float v11, v8
      0x000a: float-to-double v11, v11
      0x000b: const-wide v13, #+4614256656552045848
      0x0010: mul-double/2addr v11, v13
      0x0011: const-wide v13, #+4640537203540230144
      0x0016: div-double v1, v11, v13
      0x0018: invoke-static {v1, v2}, double java.lang.Math.sin(double) // method@119
      0x001b: move-result-wide v3
      0x001c: invoke-static {v1, v2}, double java.lang.Math.cos(double) // method@116
      0x001f: move-result-wide v5
      0x0020: move-object/from16 v0, v18
      0x0022: iget-object v0, v0, [[D com.android.cm3.FloatAtom.xA // field@24
      0x0024: move-object v11, v0
      0x0025: const/4 v12, #+0
      0x0026: aget-object v11, v11, v12
      0x0028: const/4 v12, #+0
      0x0029: aput-wide v5, v11, v12
      0x002b: move-object/from16 v0, v18
      0x002d: iget-object v0, v0, [[D com.android.cm3.FloatAtom.xA // field@24
      0x002f: move-object v11, v0
      0x0030: const/4 v12, #+1
      0x0031: aget-object v11, v11, v12
      0x0033: const/4 v12, #+0
      0x0034: aput-wide v3, v11, v12
      0x0036: move-object/from16 v0, v18
      0x0038: iget-object v0, v0, [[D com.android.cm3.FloatAtom.xA // field@24
      0x003a: move-object v11, v0
      0x003b: const/4 v12, #+2
      0x003c: aget-object v11, v11, v12
      0x003e: const/4 v12, #+0
      0x003f: const-wide/16 v13, #+0
      0x0041: aput-wide v13, v11, v12
      0x0043: move-object/from16 v0, v18
      0x0045: iget-object v0, v0, [[D com.android.cm3.FloatAtom.xA // field@24
      0x0047: move-object v11, v0
      0x0048: const/4 v12, #+0
      0x0049: aget-object v11, v11, v12
      0x004b: const/4 v12, #+1
      0x004c: neg-double v13, v3
      0x004d: aput-wide v13, v11, v12
      0x004f: move-object/from16 v0, v18
      0x0051: iget-object v0, v0, [[D com.android.cm3.FloatAtom.xA // field@24
      0x0053: move-object v11, v0
      0x0054: const/4 v12, #+1
      0x0055: aget-object v11, v11, v12
      0x0057: const/4 v12, #+1
      0x0058: aput-wide v5, v11, v12
      0x005a: move-object/from16 v0, v18
      0x005c: iget-object v0, v0, [[D com.android.cm3.FloatAtom.xA // field@24
      0x005e: move-object v11, v0
      0x005f: const/4 v12, #+2
      0x0060: aget-object v11, v11, v12
      0x0062: const/4 v12, #+1
      0x0063: const-wide/16 v13, #+0
      0x0065: aput-wide v13, v11, v12
      0x0067: move-object/from16 v0, v18
      0x0069: iget-object v0, v0, [[D com.android.cm3.FloatAtom.xA // field@24
      0x006b: move-object v11, v0
      0x006c: const/4 v12, #+0
      0x006d: aget-object v11, v11, v12
      0x006f: const/4 v12, #+2
      0x0070: const-wide/16 v13, #+0
      0x0072: aput-wide v13, v11, v12
      0x0074: move-object/from16 v0, v18
      0x0076: iget-object v0, v0, [[D com.android.cm3.FloatAtom.xA // field@24
      0x0078: move-object v11, v0
      0x0079: const/4 v12, #+1
      0x007a: aget-object v11, v11, v12
      0x007c: const/4 v12, #+2
      0x007d: const-wide/16 v13, #+0
      0x007f: aput-wide v13, v11, v12
      0x0081: move-object/from16 v0, v18
      0x0083: iget-object v0, v0, [[D com.android.cm3.FloatAtom.xA // field@24
      0x0085: move-object v11, v0
      0x0086: const/4 v12, #+2
      0x0087: aget-object v11, v11, v12
      0x0089: const/4 v12, #+2
      0x008a: const-wide/high16 v13, #long +4607182418800017408 // 0x3ff0000000000000
      0x008c: aput-wide v13, v11, v12
      0x008e: const/4 v7, #+0
      0x008f: move-object/from16 v0, v18
      0x0091: iget-object v0, v0, [[D com.android.cm3.FloatAtom.vB // field@22
      0x0093: move-object v11, v0
      0x0094: const/4 v12, #+0
      0x0095: aget-object v11, v11, v12
      0x0097: const-wide/16 v12, #+0
      0x0099: aput-wide v12, v11, v7
      0x009b: move-object/from16 v0, v18
      0x009d: iget-object v0, v0, [[D com.android.cm3.FloatAtom.vB // field@22
      0x009f: move-object v11, v0
      0x00a0: const/4 v12, #+1
      0x00a1: aget-object v11, v11, v12
      0x00a3: const-wide/16 v12, #+0
      0x00a5: aput-wide v12, v11, v7
      0x00a7: move-object/from16 v0, v18
      0x00a9: iget-object v0, v0, [[D com.android.cm3.FloatAtom.vB // field@22
      0x00ab: move-object v11, v0
      0x00ac: const/4 v12, #+2
      0x00ad: aget-object v11, v11, v12
      0x00af: const-wide/16 v12, #+0
      0x00b1: aput-wide v12, v11, v7
      0x00b3: const/4 v10, #+0
      0x00b4: const/4 v9, #+0
      0x00b5: move-object/from16 v0, v18
      0x00b7: iget-object v0, v0, [[D com.android.cm3.FloatAtom.vB // field@22
      0x00b9: move-object v11, v0
      0x00ba: aget-object v11, v11, v10
      0x00bc: move-object/from16 v0, v18
      0x00be: iget-object v0, v0, [[D com.android.cm3.FloatAtom.vB // field@22
      0x00c0: move-object v12, v0
      0x00c1: aget-object v12, v12, v10
      0x00c3: aget-wide v12, v12, v7
      0x00c5: move-object/from16 v0, v18
      0x00c7: iget-object v0, v0, [[D com.android.cm3.FloatAtom.xA // field@24
      0x00c9: move-object v14, v0
      0x00ca: aget-object v14, v14, v9
      0x00cc: aget-wide v14, v14, v10
      0x00ce: move-object/from16 v0, v18
      0x00d0: iget-object v0, v0, [[D com.android.cm3.FloatAtom.vB // field@22
      0x00d2: move-object/from16 v16, v0
      0x00d4: aget-object v16, v16, v10
      0x00d6: aget-wide v16, v16, v7
      0x00d8: mul-double v14, v14, v16
      0x00da: add-double/2addr v12, v14
      0x00db: aput-wide v12, v11, v7
      0x00dd: add-int/lit8 v9, v9, #+1
      0x00df: const/4 v11, #+3
      0x00e0: if-lt v9, v11, -43
      0x00e2: add-int/lit8 v10, v10, #+1
      0x00e4: const/4 v11, #+3
      0x00e5: if-lt v10, v11, -49
      0x00e7: add-int/lit8 v7, v7, #+1
      0x00e9: const/16 v11, #+20
      0x00eb: if-lt v7, v11, -92
      0x00ed: add-int/lit8 v8, v8, #+5
      0x00ef: goto/16 -238
    OatMethodOffsets (offset=0x000045c0)
      code_offset: 0x00007ee1 
      gc_map: (offset=0x00004bde)
    OatQuickMethodHeader (offset=0x00007ec8)
      mapping_table: (offset=0x00005357)
      vmap_table: (offset=0x00005649)
      v0/r5, v10/r6, v7/r7, v18/r8, v9/r10, v11/r11, v65535/r15, v12/fr16, v13/fr17, v14/fr18, v15/fr19, v16/fr20, v17/fr21, v1/fr22, v2/fr23, v3/fr24, v4/fr25, v5/fr26, v6/fr27, v11/fr28
    QuickMethodFrameInfo
      frame_size_in_bytes: 176
      core_spill_mask: 0x00008de0 (r5, r6, r7, r8, r10, r11, r15)
      fp_spill_mask: 0x1fff0000 (fr16, fr17, fr18, fr19, fr20, fr21, fr22, fr23, fr24, fr25, fr26, fr27, fr28)
    CODE: (code_offset=0x00007ee1 size_offset=0x00007edc size=1344)...
      0x00007ee0: f5bd5c00	subs    r12, sp, #8192
      0x00007ee4: f8dcc000	ldr.w   r12, [r12, #0]
      suspend point dex PC: 0x0000
      GC map objects:  v18 (r8)
      0x00007ee8: e92d4de0	push    {r5, r6, r7, r8, r10, r11, lr}
      0x00007eec: ed2d8a0d	vpush.f32 {s16-s28}
      0x00007ef0: b098    	sub     sp, sp, #96
      0x00007ef2: 9000    	str     r0, [sp, #0]
      0x00007ef4: 4688    	mov     r8, r1
      0x00007ef6: 2200    	movs    r2, #0
      0x00007ef8: 920d    	str     r2, [sp, #52]
      0x00007efa: 4645    	mov     r5, r8
      0x00007efc: 9b0d    	ldr     r3, [sp, #52]
      0x00007efe: 69ed    	ldr     r5, [r5, #28]
      0x00007f00: 46ab    	mov     r11, r5
      0x00007f02: 455b    	cmp     r3, r11
      0x00007f04: f2c08009	blt.w   +18 (0x00007f1a)
      0x00007f08: 3c01    	subs    r4, #1
      0x00007f0a: f00081d9	beq.w   +946 (0x000082c0)
      0x00007f0e: 980d    	ldr     r0, [sp, #52]
      0x00007f10: b018    	add     sp, sp, #96
      0x00007f12: ecbd8a0d	vpop.f32 {s16-s28}
      0x00007f16: e8bd8de0	pop     {r5, r6, r7, r8, r10, r11, pc}
      0x00007f1a: ed9d0a0d	vldr.f32 s0, [sp, #52]
      0x00007f1e: eeb8eac0	vcvt.f32.s32 s28, s0
      0x00007f22: eeb71ace	vcvt.f32.f64 s2, d14
      0x00007f26: f20f4ef0	adr     lr, +1264 (0x0000841a)
      0x00007f2a: ed9e2b00	vldr.f64 d2, [lr, #0]
      0x00007f2e: ee211b02	vmul.f64 d1, d1, d2
      0x00007f32: f20f4edc	adr     lr, +1244 (0x00008412)
      0x00007f36: ed9e2b00	vldr.f64 d2, [lr, #0]
      0x00007f3a: ed8d1b10	vstr.f64 d1, [sp, #64]
      0x00007f3e: ed8d2b12	vstr.f64 d2, [sp, #72]
      0x00007f42: ee81bb02	vdiv.f64 d11, d1, d2
      0x00007f46: f64f6e69	movw    lr, #65129
      0x00007f4a: f2c71eed	movt    lr, #29165
      0x00007f4e: f24d0078	movw    r0, #53368
      0x00007f52: f6c67095	movt    r0, #28565
      0x00007f56: ec521b1b	vmov.f64 r1, r2, d11
      0x00007f5a: 47f0    	blx     lr
      suspend point dex PC: 0x0018
      GC map objects:  v18 (r8)
      0x00007f5c: ec410b1c	vmov.f64 d12, r0, r1
      0x00007f60: f64f6e69	movw    lr, #65129
      0x00007f64: f2c71eed	movt    lr, #29165
      0x00007f68: f24c60a0	movw    r0, #50848
      0x00007f6c: f6c67095	movt    r0, #28565
      0x00007f70: ec521b1b	vmov.f64 r1, r2, d11
      0x00007f74: 47f0    	blx     lr
      suspend point dex PC: 0x001c
      GC map objects:  v18 (r8)
      0x00007f76: ec410b1d	vmov.f64 d13, r0, r1
      0x00007f7a: 4645    	mov     r5, r8
      0x00007f7c: 692d    	ldr     r5, [r5, #16]
      0x00007f7e: 46ab    	mov     r11, r5
      0x00007f80: f04f0c00	mov.w   r12, #0
      0x00007f84: f8db0008	ldr.w   r0, [r11, #8]
      suspend point dex PC: 0x0026
      GC map objects:  v0 (r5), v11 (r11), v18 (r8)
      0x00007f88: 2800    	cmp     r0, #0
      0x00007f8a: f000819d	beq.w   +826 (0x000082c8)
      0x00007f8e: f8dbb00c	ldr.w   r11, [r11, #12]
      suspend point dex PC: 0x0026
      GC map objects:  v0 (r5), v11 (r11), v18 (r8)
      0x00007f92: f04f0c00	mov.w   r12, #0
      0x00007f96: f8db1008	ldr.w   r1, [r11, #8]
      suspend point dex PC: 0x0029
      GC map objects:  v0 (r5), v11 (r11), v18 (r8)
      0x00007f9a: 2900    	cmp     r1, #0
      0x00007f9c: f0008199	beq.w   +818 (0x000082d2)
      0x00007fa0: ed8bdb04	vstr.f64 d13, [r11, #16]
      suspend point dex PC: 0x0029
      GC map objects:  v0 (r5), v11 (r11), v18 (r8)
      0x00007fa4: 4645    	mov     r5, r8
      0x00007fa6: 692d    	ldr     r5, [r5, #16]
      0x00007fa8: 46ab    	mov     r11, r5
      0x00007faa: f04f0c01	mov.w   r12, #1
      0x00007fae: f8db2008	ldr.w   r2, [r11, #8]
      suspend point dex PC: 0x0031
      GC map objects:  v0 (r5), v11 (r11), v18 (r8)
      0x00007fb2: 2a01    	cmp     r2, #1
      0x00007fb4: f2408191	bls.w   +802 (0x000082da)
      0x00007fb8: f8dbb010	ldr.w   r11, [r11, #16]
      suspend point dex PC: 0x0031
      GC map objects:  v0 (r5), v11 (r11), v18 (r8)
      0x00007fbc: f04f0c00	mov.w   r12, #0
      0x00007fc0: f8db3008	ldr.w   r3, [r11, #8]
      suspend point dex PC: 0x0034
      GC map objects:  v0 (r5), v11 (r11), v18 (r8)
      0x00007fc4: 2b00    	cmp     r3, #0
      0x00007fc6: f000818d	beq.w   +794 (0x000082e4)
      0x00007fca: ed8bcb04	vstr.f64 d12, [r11, #16]
      suspend point dex PC: 0x0034
      GC map objects:  v0 (r5), v11 (r11), v18 (r8)
      0x00007fce: 4645    	mov     r5, r8
      0x00007fd0: 692d    	ldr     r5, [r5, #16]
      0x00007fd2: 46ab    	mov     r11, r5
      0x00007fd4: f04f0c02	mov.w   r12, #2
      0x00007fd8: f8db0008	ldr.w   r0, [r11, #8]
      suspend point dex PC: 0x003c
      GC map objects:  v0 (r5), v11 (r11), v18 (r8)
      0x00007fdc: 2802    	cmp     r0, #2
      0x00007fde: f2408186	bls.w   +780 (0x000082ee)
      0x00007fe2: f8dbb014	ldr.w   r11, [r11, #20]
      suspend point dex PC: 0x003c
      GC map objects:  v0 (r5), v11 (r11), v18 (r8)
      0x00007fe6: f04f0c00	mov.w   r12, #0
      0x00007fea: 2100    	movs    r1, #0
      0x00007fec: 2200    	movs    r2, #0
      0x00007fee: e9cd1212	strd    r1,r2, [sp, #+72]
      0x00007ff2: f8db3008	ldr.w   r3, [r11, #8]
      suspend point dex PC: 0x0041
      GC map objects:  v0 (r5), v11 (r11), v18 (r8)
      0x00007ff6: 2b00    	cmp     r3, #0
      0x00007ff8: f000817e	beq.w   +764 (0x000082f8)
      0x00007ffc: e9cb1204	strd    r1,r2, [r11, #+16]
      suspend point dex PC: 0x0041
      GC map objects:  v0 (r5), v11 (r11), v18 (r8)
      0x00008000: 4645    	mov     r5, r8
      0x00008002: 692d    	ldr     r5, [r5, #16]
      0x00008004: 46ab    	mov     r11, r5
      0x00008006: f04f0c00	mov.w   r12, #0
      0x0000800a: f8db0008	ldr.w   r0, [r11, #8]
      suspend point dex PC: 0x0049
      GC map objects:  v0 (r5), v11 (r11), v18 (r8)
      0x0000800e: 2800    	cmp     r0, #0
      0x00008010: f0008177	beq.w   +750 (0x00008302)
      0x00008014: f8dbb00c	ldr.w   r11, [r11, #12]
      suspend point dex PC: 0x0049
      GC map objects:  v0 (r5), v11 (r11), v18 (r8)
      0x00008018: f04f0c01	mov.w   r12, #1
      0x0000801c: eeb13b4c	vneg.f64 d3, d12
      0x00008020: f8db1008	ldr.w   r1, [r11, #8]
      suspend point dex PC: 0x004d
      GC map objects:  v0 (r5), v11 (r11), v18 (r8)
      0x00008024: 2901    	cmp     r1, #1
      0x00008026: f2408171	bls.w   +738 (0x0000830c)
      0x0000802a: ed8b3b06	vstr.f64 d3, [r11, #24]
      suspend point dex PC: 0x004d
      GC map objects:  v0 (r5), v11 (r11), v18 (r8)
      0x0000802e: 4645    	mov     r5, r8
      0x00008030: 692d    	ldr     r5, [r5, #16]
      0x00008032: 46ab    	mov     r11, r5
      0x00008034: f04f0c01	mov.w   r12, #1
      0x00008038: f8db2008	ldr.w   r2, [r11, #8]
      suspend point dex PC: 0x0055
      GC map objects:  v0 (r5), v11 (r11), v18 (r8)
      0x0000803c: 2a01    	cmp     r2, #1
      0x0000803e: f2408169	bls.w   +722 (0x00008314)
      0x00008042: f8dbb010	ldr.w   r11, [r11, #16]
      suspend point dex PC: 0x0055
      GC map objects:  v0 (r5), v11 (r11), v18 (r8)
      0x00008046: f04f0c01	mov.w   r12, #1
      0x0000804a: f8db3008	ldr.w   r3, [r11, #8]
      suspend point dex PC: 0x0058
      GC map objects:  v0 (r5), v11 (r11), v18 (r8)
      0x0000804e: 2b01    	cmp     r3, #1
      0x00008050: f2408165	bls.w   +714 (0x0000831e)
      0x00008054: ed8bdb06	vstr.f64 d13, [r11, #24]
      suspend point dex PC: 0x0058
      GC map objects:  v0 (r5), v11 (r11), v18 (r8)
      0x00008058: 4645    	mov     r5, r8
      0x0000805a: 692d    	ldr     r5, [r5, #16]
      0x0000805c: 46ab    	mov     r11, r5
      0x0000805e: f04f0c02	mov.w   r12, #2
      0x00008062: f8db0008	ldr.w   r0, [r11, #8]
      suspend point dex PC: 0x0060
      GC map objects:  v0 (r5), v11 (r11), v18 (r8)
      0x00008066: 2802    	cmp     r0, #2
      0x00008068: f240815e	bls.w   +700 (0x00008328)
      0x0000806c: f8dbb014	ldr.w   r11, [r11, #20]
      suspend point dex PC: 0x0060
      GC map objects:  v0 (r5), v11 (r11), v18 (r8)
      0x00008070: f04f0c01	mov.w   r12, #1
      0x00008074: eeb03b00	vmov.f64 d3, 0x4000000000000000
      0x00008078: ee333b43	vsub.f64 d3, d3, d3
      0x0000807c: f8db1008	ldr.w   r1, [r11, #8]
      suspend point dex PC: 0x0065
      GC map objects:  v0 (r5), v11 (r11), v18 (r8)
      0x00008080: 2901    	cmp     r1, #1
      0x00008082: f2408156	bls.w   +684 (0x00008332)
      0x00008086: ed8b3b06	vstr.f64 d3, [r11, #24]
      suspend point dex PC: 0x0065
      GC map objects:  v0 (r5), v11 (r11), v18 (r8)
      0x0000808a: 4645    	mov     r5, r8
      0x0000808c: 692d    	ldr     r5, [r5, #16]
      0x0000808e: 46ab    	mov     r11, r5
      0x00008090: f04f0c00	mov.w   r12, #0
      0x00008094: f8db2008	ldr.w   r2, [r11, #8]
      suspend point dex PC: 0x006d
      GC map objects:  v0 (r5), v11 (r11), v18 (r8)
      0x00008098: 2a00    	cmp     r2, #0
      0x0000809a: f000814e	beq.w   +668 (0x0000833a)
      0x0000809e: f8dbb00c	ldr.w   r11, [r11, #12]
      suspend point dex PC: 0x006d
      GC map objects:  v0 (r5), v11 (r11), v18 (r8)
      0x000080a2: f04f0c02	mov.w   r12, #2
      0x000080a6: eeb03b00	vmov.f64 d3, 0x4000000000000000
      0x000080aa: ee333b43	vsub.f64 d3, d3, d3
      0x000080ae: f8db3008	ldr.w   r3, [r11, #8]
      suspend point dex PC: 0x0072
      GC map objects:  v0 (r5), v11 (r11), v18 (r8)
      0x000080b2: 2b02    	cmp     r3, #2
      0x000080b4: f2408146	bls.w   +652 (0x00008344)
      0x000080b8: ed8b3b08	vstr.f64 d3, [r11, #32]
      suspend point dex PC: 0x0072
      GC map objects:  v0 (r5), v11 (r11), v18 (r8)
      0x000080bc: 4645    	mov     r5, r8
      0x000080be: 692d    	ldr     r5, [r5, #16]
      0x000080c0: 46ab    	mov     r11, r5
      0x000080c2: f04f0c01	mov.w   r12, #1
      0x000080c6: f8db0008	ldr.w   r0, [r11, #8]
      suspend point dex PC: 0x007a
      GC map objects:  v0 (r5), v11 (r11), v18 (r8)
      0x000080ca: 2801    	cmp     r0, #1
      0x000080cc: f240813f	bls.w   +638 (0x0000834e)
      0x000080d0: f8dbb010	ldr.w   r11, [r11, #16]
      suspend point dex PC: 0x007a
      GC map objects:  v0 (r5), v11 (r11), v18 (r8)
      0x000080d4: f04f0c02	mov.w   r12, #2
      0x000080d8: eeb03b00	vmov.f64 d3, 0x4000000000000000
      0x000080dc: ee333b43	vsub.f64 d3, d3, d3
      0x000080e0: f8db1008	ldr.w   r1, [r11, #8]
      suspend point dex PC: 0x007f
      GC map objects:  v0 (r5), v11 (r11), v18 (r8)
      0x000080e4: 2902    	cmp     r1, #2
      0x000080e6: f2408137	bls.w   +622 (0x00008358)
      0x000080ea: ed8b3b08	vstr.f64 d3, [r11, #32]
      suspend point dex PC: 0x007f
      GC map objects:  v0 (r5), v11 (r11), v18 (r8)
      0x000080ee: 4645    	mov     r5, r8
      0x000080f0: 692d    	ldr     r5, [r5, #16]
      0x000080f2: 46ab    	mov     r11, r5
      0x000080f4: f04f0c02	mov.w   r12, #2
      0x000080f8: f8db2008	ldr.w   r2, [r11, #8]
      suspend point dex PC: 0x0087
      GC map objects:  v0 (r5), v11 (r11), v18 (r8)
      0x000080fc: 2a02    	cmp     r2, #2
      0x000080fe: f240812f	bls.w   +606 (0x00008360)
      0x00008102: f8dbb014	ldr.w   r11, [r11, #20]
      suspend point dex PC: 0x0087
      GC map objects:  v0 (r5), v11 (r11), v18 (r8)
      0x00008106: f04f0c02	mov.w   r12, #2
      0x0000810a: f8cdc044	str.w   r12, [sp, #68]
      0x0000810e: eeb73b00	vmov.f64 d3, 0x3ff0000000000000
      0x00008112: ed8d3b12	vstr.f64 d3, [sp, #72]
      0x00008116: f8db3008	ldr.w   r3, [r11, #8]
      suspend point dex PC: 0x008c
      GC map objects:  v0 (r5), v11 (r11), v18 (r8)
      0x0000811a: 2b02    	cmp     r3, #2
      0x0000811c: f2408125	bls.w   +586 (0x0000836a)
      0x00008120: ed8b3b08	vstr.f64 d3, [r11, #32]
      suspend point dex PC: 0x008c
      GC map objects:  v0 (r5), v11 (r11), v18 (r8)
      0x00008124: 2700    	movs    r7, #0
      0x00008126: 4645    	mov     r5, r8
      0x00008128: 68ed    	ldr     r5, [r5, #12]
      0x0000812a: 46ab    	mov     r11, r5
      0x0000812c: f04f0c00	mov.w   r12, #0
      0x00008130: f8cdc044	str.w   r12, [sp, #68]
      0x00008134: f8db0008	ldr.w   r0, [r11, #8]
      suspend point dex PC: 0x0095
      GC map objects:  v0 (r5), v11 (r11), v18 (r8)
      0x00008138: 2800    	cmp     r0, #0
      0x0000813a: f000811b	beq.w   +566 (0x00008374)
      0x0000813e: f8dbb00c	ldr.w   r11, [r11, #12]
      suspend point dex PC: 0x0095
      GC map objects:  v0 (r5), v11 (r11), v18 (r8)
      0x00008142: 2100    	movs    r1, #0
      0x00008144: 2200    	movs    r2, #0
      0x00008146: e9cd1211	strd    r1,r2, [sp, #+68]
      0x0000814a: f8dbc008	ldr.w   r12, [r11, #8]
      suspend point dex PC: 0x0099
      GC map objects:  v0 (r5), v11 (r11), v18 (r8)
      0x0000814e: eb1b03c7	adds.w  r3, r11, r7, lsl #3
      0x00008152: 4567    	cmp     r7, r12
      0x00008154: f0808113	bcs.w   +550 (0x0000837e)
      0x00008158: e9c31204	strd    r1,r2, [r3, #+16]
      suspend point dex PC: 0x0099
      GC map objects:  v0 (r5), v11 (r11), v18 (r8)
      0x0000815c: 4645    	mov     r5, r8
      0x0000815e: 68ed    	ldr     r5, [r5, #12]
      0x00008160: 46ab    	mov     r11, r5
      0x00008162: 2001    	movs    r0, #1
      0x00008164: 9011    	str     r0, [sp, #68]
      0x00008166: f8db1008	ldr.w   r1, [r11, #8]
      suspend point dex PC: 0x00a1
      GC map objects:  v0 (r5), v11 (r11), v18 (r8)
      0x0000816a: 2901    	cmp     r1, #1
      0x0000816c: f240810c	bls.w   +536 (0x00008388)
      0x00008170: f8dbb010	ldr.w   r11, [r11, #16]
      suspend point dex PC: 0x00a1
      GC map objects:  v0 (r5), v11 (r11), v18 (r8)
      0x00008174: 2200    	movs    r2, #0
      0x00008176: 2300    	movs    r3, #0
      0x00008178: e9cd2311	strd    r2,r3, [sp, #+68]
      0x0000817c: f8db0008	ldr.w   r0, [r11, #8]
      suspend point dex PC: 0x00a5
      GC map objects:  v0 (r5), v11 (r11), v18 (r8)
      0x00008180: eb1b0cc7	adds.w  r12, r11, r7, lsl #3
      0x00008184: 4287    	cmp     r7, r0
      0x00008186: f0808103	bcs.w   +518 (0x00008390)
      0x0000818a: e9cc2304	strd    r2,r3, [r12, #+16]
      suspend point dex PC: 0x00a5
      GC map objects:  v0 (r5), v11 (r11), v18 (r8)
      0x0000818e: 4645    	mov     r5, r8
      0x00008190: 68ed    	ldr     r5, [r5, #12]
      0x00008192: 46ab    	mov     r11, r5
      0x00008194: 2102    	movs    r1, #2
      0x00008196: 9111    	str     r1, [sp, #68]
      0x00008198: f8db2008	ldr.w   r2, [r11, #8]
      suspend point dex PC: 0x00ad
      GC map objects:  v0 (r5), v11 (r11), v18 (r8)
      0x0000819c: 2a02    	cmp     r2, #2
      0x0000819e: f24080fc	bls.w   +504 (0x0000839a)
      0x000081a2: f8dbb014	ldr.w   r11, [r11, #20]
      suspend point dex PC: 0x00ad
      GC map objects:  v0 (r5), v11 (r11), v18 (r8)
      0x000081a6: 2300    	movs    r3, #0
      0x000081a8: f04f0c00	mov.w   r12, #0
      0x000081ac: e9cd3c11	strd    r3,r12, [sp, #+68]
      0x000081b0: f8db1008	ldr.w   r1, [r11, #8]
      suspend point dex PC: 0x00b1
      GC map objects:  v0 (r5), v11 (r11), v18 (r8)
      0x000081b4: eb1b00c7	adds.w  r0, r11, r7, lsl #3
      0x000081b8: 428f    	cmp     r7, r1
      0x000081ba: f08080f3	bcs.w   +486 (0x000083a4)
      0x000081be: e9c03c04	strd    r3,r12, [r0, #+16]
      suspend point dex PC: 0x00b1
      GC map objects:  v0 (r5), v11 (r11), v18 (r8)
      0x000081c2: 2600    	movs    r6, #0
      0x000081c4: f04f0a00	mov.w   r10, #0
      0x000081c8: 4645    	mov     r5, r8
      0x000081ca: 68ed    	ldr     r5, [r5, #12]
      0x000081cc: 46ab    	mov     r11, r5
      0x000081ce: f8db2008	ldr.w   r2, [r11, #8]
      suspend point dex PC: 0x00ba
      GC map objects:  v0 (r5), v11 (r11), v18 (r8)
      0x000081d2: f11b030c	adds    r3, r11, #12
      0x000081d6: 4296    	cmp     r6, r2
      0x000081d8: f08080e8	bcs.w   +464 (0x000083ac)
      0x000081dc: f853b026	ldr.w   r11, [r3, r6, lsl #2]
      suspend point dex PC: 0x00ba
      GC map objects:  v0 (r5), v11 (r11), v18 (r8)
      0x000081e0: 4645    	mov     r5, r8
      0x000081e2: 68ed    	ldr     r5, [r5, #12]
      0x000081e4: 46ac    	mov     r12, r5
      0x000081e6: f8cdc044	str.w   r12, [sp, #68]
      0x000081ea: f8dc0008	ldr.w   r0, [r12, #8]
      suspend point dex PC: 0x00c1
      GC map objects:  v0 (r5), v11 (r11), v12 ([sp + #68]), v18 (r8)
      0x000081ee: f11c010c	adds    r1, r12, #12
      0x000081f2: 4286    	cmp     r6, r0
      0x000081f4: f08080df	bcs.w   +446 (0x000083b6)
      0x000081f8: f851c026	ldr.w   r12, [r1, r6, lsl #2]
      suspend point dex PC: 0x00c1
      GC map objects:  v0 (r5), v11 (r11), v12 ([sp + #68]), v18 (r8)
      0x000081fc: f8cdc044	str.w   r12, [sp, #68]
      0x00008200: f8dc2008	ldr.w   r2, [r12, #8]
      suspend point dex PC: 0x00c3
      GC map objects:  v0 (r5), v11 (r11), v12 ([sp + #68]), v18 (r8)
      0x00008204: eb1c03c7	adds.w  r3, r12, r7, lsl #3
      0x00008208: 4297    	cmp     r7, r2
      0x0000820a: f08080d9	bcs.w   +434 (0x000083c0)
      0x0000820e: ed938b04	vldr.f64 d8, [r3, #16]
      suspend point dex PC: 0x00c3
      GC map objects:  v0 (r5), v11 (r11), v12 ([sp + #68]), v18 (r8)
      0x00008212: 4645    	mov     r5, r8
      0x00008214: 692d    	ldr     r5, [r5, #16]
      0x00008216: 1c28    	mov     r0, r5
      0x00008218: 9013    	str     r0, [sp, #76]
      0x0000821a: 6881    	ldr     r1, [r0, #8]
      suspend point dex PC: 0x00ca
      GC map objects:  v0 (r5), v11 (r11), v14 ([sp + #76]), v18 (r8)
      0x0000821c: f110020c	adds    r2, r0, #12
      0x00008220: 458a    	cmp     r10, r1
      0x00008222: f08080d2	bcs.w   +420 (0x000083ca)
      0x00008226: f852002a	ldr.w   r0, [r2, r10, lsl #2]
      suspend point dex PC: 0x00ca
      GC map objects:  v0 (r5), v11 (r11), v14 ([sp + #76]), v18 (r8)
      0x0000822a: 9013    	str     r0, [sp, #76]
      0x0000822c: 6883    	ldr     r3, [r0, #8]
      suspend point dex PC: 0x00cc
      GC map objects:  v0 (r5), v11 (r11), v14 ([sp + #76]), v18 (r8)
      0x0000822e: eb1001c6	adds.w  r1, r0, r6, lsl #3
      0x00008232: 429e    	cmp     r6, r3
      0x00008234: f08080cd	bcs.w   +410 (0x000083d2)
      0x00008238: ed919b04	vldr.f64 d9, [r1, #16]
      suspend point dex PC: 0x00cc
      GC map objects:  v0 (r5), v11 (r11), v14 ([sp + #76]), v18 (r8)
      0x0000823c: 4645    	mov     r5, r8
      0x0000823e: 68ed    	ldr     r5, [r5, #12]
      0x00008240: 1c2a    	mov     r2, r5
      0x00008242: 9215    	str     r2, [sp, #84]
      0x00008244: 6893    	ldr     r3, [r2, #8]
      suspend point dex PC: 0x00d4
      GC map objects:  v0 (r5), v11 (r11), v16 ([sp + #84]), v18 (r8)
      0x00008246: f112010c	adds    r1, r2, #12
      0x0000824a: 429e    	cmp     r6, r3
      0x0000824c: f08080c6	bcs.w   +396 (0x000083dc)
      0x00008250: f8512026	ldr.w   r2, [r1, r6, lsl #2]
      suspend point dex PC: 0x00d4
      GC map objects:  v0 (r5), v11 (r11), v16 ([sp + #84]), v18 (r8)
      0x00008254: 9215    	str     r2, [sp, #84]
      0x00008256: 6893    	ldr     r3, [r2, #8]
      suspend point dex PC: 0x00d6
      GC map objects:  v0 (r5), v11 (r11), v16 ([sp + #84]), v18 (r8)
      0x00008258: eb1201c7	adds.w  r1, r2, r7, lsl #3
      0x0000825c: 429f    	cmp     r7, r3
      0x0000825e: f08080c2	bcs.w   +388 (0x000083e6)
      0x00008262: ed91ab04	vldr.f64 d10, [r1, #16]
      suspend point dex PC: 0x00d6
      GC map objects:  v0 (r5), v11 (r11), v16 ([sp + #84]), v18 (r8)
      0x00008266: ee299b0a	vmul.f64 d9, d9, d10
      0x0000826a: ee388b09	vadd.f64 d8, d8, d9
      0x0000826e: f8db1008	ldr.w   r1, [r11, #8]
      suspend point dex PC: 0x00db
      GC map objects:  v0 (r5), v11 (r11), v18 (r8)
      0x00008272: eb1b03c7	adds.w  r3, r11, r7, lsl #3
      0x00008276: 428f    	cmp     r7, r1
      0x00008278: f08080ba	bcs.w   +372 (0x000083f0)
      0x0000827c: ed838b04	vstr.f64 d8, [r3, #16]
      suspend point dex PC: 0x00db
      GC map objects:  v0 (r5), v11 (r11), v18 (r8)
      0x00008280: f11a0a01	adds    r10, r10, #1
      0x00008284: f04f0b03	mov.w   r11, #3
      0x00008288: 3c01    	subs    r4, #1
      0x0000828a: f00080b5	beq.w   +362 (0x000083f8)
      0x0000828e: 45da    	cmp     r10, r11
      0x00008290: f6ffaf9a	blt.w   -204 (0x000081c8)
      0x00008294: 1c76    	adds    r6, r6, #1
      0x00008296: f04f0b03	mov.w   r11, #3
      0x0000829a: 3c01    	subs    r4, #1
      0x0000829c: f00080b0	beq.w   +352 (0x00008400)
      0x000082a0: 455e    	cmp     r6, r11
      0x000082a2: f6ffaf8f	blt.w   -226 (0x000081c4)
      0x000082a6: 1c7f    	adds    r7, r7, #1
      0x000082a8: f04f0b14	mov.w   r11, #20
      0x000082ac: 3c01    	subs    r4, #1
      0x000082ae: f00080ab	beq.w   +342 (0x00008408)
      0x000082b2: 455f    	cmp     r7, r11
      0x000082b4: f6ffaf37	blt.w   -402 (0x00008126)
      0x000082b8: 9a0d    	ldr     r2, [sp, #52]
      0x000082ba: 1d52    	adds    r2, r2, #5
      0x000082bc: 920d    	str     r2, [sp, #52]
      0x000082be: e61c    	b       -968 (0x00007efa)
      0x000082c0: f8d9e230	ldr.w   lr, [r9, #560]  ; pTestSuspend
      0x000082c4: 47f0    	blx     lr
      suspend point dex PC: 0x0008
      0x000082c6: e622    	b       -956 (0x00007f0e)
      0x000082c8: 1c01    	mov     r1, r0
      0x000082ca: 2000    	movs    r0, #0
      0x000082cc: f8d9e238	ldr.w   lr, [r9, #568]  ; pThrowArrayBounds
      0x000082d0: 47f0    	blx     lr
      suspend point dex PC: 0x0026
      GC map objects:  v0 (r5), v11 (r11), v18 (r8)
      0x000082d2: 2000    	movs    r0, #0
      0x000082d4: f8d9e238	ldr.w   lr, [r9, #568]  ; pThrowArrayBounds
      0x000082d8: 47f0    	blx     lr
      suspend point dex PC: 0x0029
      GC map objects:  v0 (r5), v11 (r11), v18 (r8)
      0x000082da: 1c11    	mov     r1, r2
      0x000082dc: 2001    	movs    r0, #1
      0x000082de: f8d9e238	ldr.w   lr, [r9, #568]  ; pThrowArrayBounds
      0x000082e2: 47f0    	blx     lr
      suspend point dex PC: 0x0031
      GC map objects:  v0 (r5), v11 (r11), v18 (r8)
      0x000082e4: 1c19    	mov     r1, r3
      0x000082e6: 2000    	movs    r0, #0
      0x000082e8: f8d9e238	ldr.w   lr, [r9, #568]  ; pThrowArrayBounds
      0x000082ec: 47f0    	blx     lr
      suspend point dex PC: 0x0034
      GC map objects:  v0 (r5), v11 (r11), v18 (r8)
      0x000082ee: 1c01    	mov     r1, r0
      0x000082f0: 2002    	movs    r0, #2
      0x000082f2: f8d9e238	ldr.w   lr, [r9, #568]  ; pThrowArrayBounds
      0x000082f6: 47f0    	blx     lr
      suspend point dex PC: 0x003c
      GC map objects:  v0 (r5), v11 (r11), v18 (r8)
      0x000082f8: 1c19    	mov     r1, r3
      0x000082fa: 2000    	movs    r0, #0
      0x000082fc: f8d9e238	ldr.w   lr, [r9, #568]  ; pThrowArrayBounds
      0x00008300: 47f0    	blx     lr
      suspend point dex PC: 0x0041
      GC map objects:  v0 (r5), v11 (r11), v18 (r8)
      0x00008302: 1c01    	mov     r1, r0
      0x00008304: 2000    	movs    r0, #0
      0x00008306: f8d9e238	ldr.w   lr, [r9, #568]  ; pThrowArrayBounds
      0x0000830a: 47f0    	blx     lr
      suspend point dex PC: 0x0049
      GC map objects:  v0 (r5), v11 (r11), v18 (r8)
      0x0000830c: 2001    	movs    r0, #1
      0x0000830e: f8d9e238	ldr.w   lr, [r9, #568]  ; pThrowArrayBounds
      0x00008312: 47f0    	blx     lr
      suspend point dex PC: 0x004d
      GC map objects:  v0 (r5), v11 (r11), v18 (r8)
      0x00008314: 1c11    	mov     r1, r2
      0x00008316: 2001    	movs    r0, #1
      0x00008318: f8d9e238	ldr.w   lr, [r9, #568]  ; pThrowArrayBounds
      0x0000831c: 47f0    	blx     lr
      suspend point dex PC: 0x0055
      GC map objects:  v0 (r5), v11 (r11), v18 (r8)
      0x0000831e: 1c19    	mov     r1, r3
      0x00008320: 2001    	movs    r0, #1
      0x00008322: f8d9e238	ldr.w   lr, [r9, #568]  ; pThrowArrayBounds
      0x00008326: 47f0    	blx     lr
      suspend point dex PC: 0x0058
      GC map objects:  v0 (r5), v11 (r11), v18 (r8)
      0x00008328: 1c01    	mov     r1, r0
      0x0000832a: 2002    	movs    r0, #2
      0x0000832c: f8d9e238	ldr.w   lr, [r9, #568]  ; pThrowArrayBounds
      0x00008330: 47f0    	blx     lr
      suspend point dex PC: 0x0060
      GC map objects:  v0 (r5), v11 (r11), v18 (r8)
      0x00008332: 2001    	movs    r0, #1
      0x00008334: f8d9e238	ldr.w   lr, [r9, #568]  ; pThrowArrayBounds
      0x00008338: 47f0    	blx     lr
      suspend point dex PC: 0x0065
      GC map objects:  v0 (r5), v11 (r11), v18 (r8)
      0x0000833a: 1c11    	mov     r1, r2
      0x0000833c: 2000    	movs    r0, #0
      0x0000833e: f8d9e238	ldr.w   lr, [r9, #568]  ; pThrowArrayBounds
      0x00008342: 47f0    	blx     lr
      suspend point dex PC: 0x006d
      GC map objects:  v0 (r5), v11 (r11), v18 (r8)
      0x00008344: 1c19    	mov     r1, r3
      0x00008346: 2002    	movs    r0, #2
      0x00008348: f8d9e238	ldr.w   lr, [r9, #568]  ; pThrowArrayBounds
      0x0000834c: 47f0    	blx     lr
      suspend point dex PC: 0x0072
      GC map objects:  v0 (r5), v11 (r11), v18 (r8)
      0x0000834e: 1c01    	mov     r1, r0
      0x00008350: 2001    	movs    r0, #1
      0x00008352: f8d9e238	ldr.w   lr, [r9, #568]  ; pThrowArrayBounds
      0x00008356: 47f0    	blx     lr
      suspend point dex PC: 0x007a
      GC map objects:  v0 (r5), v11 (r11), v18 (r8)
      0x00008358: 2002    	movs    r0, #2
      0x0000835a: f8d9e238	ldr.w   lr, [r9, #568]  ; pThrowArrayBounds
      0x0000835e: 47f0    	blx     lr
      suspend point dex PC: 0x007f
      GC map objects:  v0 (r5), v11 (r11), v18 (r8)
      0x00008360: 1c11    	mov     r1, r2
      0x00008362: 2002    	movs    r0, #2
      0x00008364: f8d9e238	ldr.w   lr, [r9, #568]  ; pThrowArrayBounds
      0x00008368: 47f0    	blx     lr
      suspend point dex PC: 0x0087
      GC map objects:  v0 (r5), v11 (r11), v18 (r8)
      0x0000836a: 1c19    	mov     r1, r3
      0x0000836c: 2002    	movs    r0, #2
      0x0000836e: f8d9e238	ldr.w   lr, [r9, #568]  ; pThrowArrayBounds
      0x00008372: 47f0    	blx     lr
      suspend point dex PC: 0x008c
      GC map objects:  v0 (r5), v11 (r11), v18 (r8)
      0x00008374: 1c01    	mov     r1, r0
      0x00008376: 2000    	movs    r0, #0
      0x00008378: f8d9e238	ldr.w   lr, [r9, #568]  ; pThrowArrayBounds
      0x0000837c: 47f0    	blx     lr
      suspend point dex PC: 0x0095
      GC map objects:  v0 (r5), v11 (r11), v18 (r8)
      0x0000837e: f8d9e238	ldr.w   lr, [r9, #568]  ; pThrowArrayBounds
      0x00008382: 1c38    	mov     r0, r7
      0x00008384: 4661    	mov     r1, r12
      0x00008386: 47f0    	blx     lr
      suspend point dex PC: 0x0099
      GC map objects:  v0 (r5), v11 (r11), v18 (r8)
      0x00008388: 2001    	movs    r0, #1
      0x0000838a: f8d9e238	ldr.w   lr, [r9, #568]  ; pThrowArrayBounds
      0x0000838e: 47f0    	blx     lr
      suspend point dex PC: 0x00a1
      GC map objects:  v0 (r5), v11 (r11), v18 (r8)
      0x00008390: f8d9e238	ldr.w   lr, [r9, #568]  ; pThrowArrayBounds
      0x00008394: 1c01    	mov     r1, r0
      0x00008396: 1c38    	mov     r0, r7
      0x00008398: 47f0    	blx     lr
      suspend point dex PC: 0x00a5
      GC map objects:  v0 (r5), v11 (r11), v18 (r8)
      0x0000839a: 1c11    	mov     r1, r2
      0x0000839c: 2002    	movs    r0, #2
      0x0000839e: f8d9e238	ldr.w   lr, [r9, #568]  ; pThrowArrayBounds
      0x000083a2: 47f0    	blx     lr
      suspend point dex PC: 0x00ad
      GC map objects:  v0 (r5), v11 (r11), v18 (r8)
      0x000083a4: f8d9e238	ldr.w   lr, [r9, #568]  ; pThrowArrayBounds
      0x000083a8: 1c38    	mov     r0, r7
      0x000083aa: 47f0    	blx     lr
      suspend point dex PC: 0x00b1
      GC map objects:  v0 (r5), v11 (r11), v18 (r8)
      0x000083ac: f8d9e238	ldr.w   lr, [r9, #568]  ; pThrowArrayBounds
      0x000083b0: 1c30    	mov     r0, r6
      0x000083b2: 1c11    	mov     r1, r2
      0x000083b4: 47f0    	blx     lr
      suspend point dex PC: 0x00ba
      GC map objects:  v0 (r5), v11 (r11), v18 (r8)
      0x000083b6: f8d9e238	ldr.w   lr, [r9, #568]  ; pThrowArrayBounds
      0x000083ba: 1c01    	mov     r1, r0
      0x000083bc: 1c30    	mov     r0, r6
      0x000083be: 47f0    	blx     lr
      suspend point dex PC: 0x00c1
      GC map objects:  v0 (r5), v11 (r11), v12 ([sp + #68]), v18 (r8)
      0x000083c0: f8d9e238	ldr.w   lr, [r9, #568]  ; pThrowArrayBounds
      0x000083c4: 1c38    	mov     r0, r7
      0x000083c6: 1c11    	mov     r1, r2
      0x000083c8: 47f0    	blx     lr
      suspend point dex PC: 0x00c3
      GC map objects:  v0 (r5), v11 (r11), v12 ([sp + #68]), v18 (r8)
      0x000083ca: f8d9e238	ldr.w   lr, [r9, #568]  ; pThrowArrayBounds
      0x000083ce: 4650    	mov     r0, r10
      0x000083d0: 47f0    	blx     lr
      suspend point dex PC: 0x00ca
      GC map objects:  v0 (r5), v11 (r11), v14 ([sp + #76]), v18 (r8)
      0x000083d2: f8d9e238	ldr.w   lr, [r9, #568]  ; pThrowArrayBounds
      0x000083d6: 1c30    	mov     r0, r6
      0x000083d8: 1c19    	mov     r1, r3
      0x000083da: 47f0    	blx     lr
      suspend point dex PC: 0x00cc
      GC map objects:  v0 (r5), v11 (r11), v14 ([sp + #76]), v18 (r8)
      0x000083dc: f8d9e238	ldr.w   lr, [r9, #568]  ; pThrowArrayBounds
      0x000083e0: 1c30    	mov     r0, r6
      0x000083e2: 1c19    	mov     r1, r3
      0x000083e4: 47f0    	blx     lr
      suspend point dex PC: 0x00d4
      GC map objects:  v0 (r5), v11 (r11), v16 ([sp + #84]), v18 (r8)
      0x000083e6: f8d9e238	ldr.w   lr, [r9, #568]  ; pThrowArrayBounds
      0x000083ea: 1c38    	mov     r0, r7
      0x000083ec: 1c19    	mov     r1, r3
      0x000083ee: 47f0    	blx     lr
      suspend point dex PC: 0x00d6
      GC map objects:  v0 (r5), v11 (r11), v16 ([sp + #84]), v18 (r8)
      0x000083f0: f8d9e238	ldr.w   lr, [r9, #568]  ; pThrowArrayBounds
      0x000083f4: 1c38    	mov     r0, r7
      0x000083f6: 47f0    	blx     lr
      suspend point dex PC: 0x00db
      GC map objects:  v0 (r5), v11 (r11), v18 (r8)
      0x000083f8: f8d9e230	ldr.w   lr, [r9, #560]  ; pTestSuspend
      0x000083fc: 47f0    	blx     lr
      suspend point dex PC: 0x00e0
      GC map objects:  v0 (r5), v18 (r8)
      0x000083fe: e746    	b       -372 (0x0000828e)
      0x00008400: f8d9e230	ldr.w   lr, [r9, #560]  ; pTestSuspend
      0x00008404: 47f0    	blx     lr
      suspend point dex PC: 0x00e5
      GC map objects:  v0 (r5), v18 (r8)
      0x00008406: e74b    	b       -362 (0x000082a0)
      0x00008408: f8d9e230	ldr.w   lr, [r9, #560]  ; pTestSuspend
      0x0000840c: 47f0    	blx     lr
      suspend point dex PC: 0x00eb
      GC map objects:  v0 (r5), v18 (r8)
      0x0000840e: e750    	b       -352 (0x000082b2)
      0x00008410: 0000    	lsls    r0, r0, #0
      0x00008412: 0000    	lsls    r0, r0, #0
      0x00008414: 8000    	strh    r0, [r0, #0]
      0x00008416: 4066    	eor     r6, r4
      0x00008418: 2d18    	cmp     r5, #24
      0x0000841a: 5444    	strb    r4, [r0, r1]
      0x0000841c: 21fb    	movs    r1, #251
      0x0000841e: 4009    	and     r1, r1
  4: boolean com.android.cm3.FloatAtom.initialize(int) (dex_method_idx=54) 1
    DEX CODE:
      0x0000: const/4 v7, #+1
      0x0001: const/16 v6, #+20
      0x0003: const/4 v3, #+3
      0x0004: if-eqz v9, +4
      0x0006: iput v9, v8, I com.android.cm3.FloatAtom.wMaxDegrees // field@23
      0x0008: filled-new-array {v3, v3}, type@49
      0x000b: move-result-object v1
      0x000c: sget-object  v2, Ljava/lang/Class; java.lang.Double.TYPE // field@47
      0x000e: invoke-static {v2, v1}, java.lang.Object java.lang.reflect.Array.newInstance(java.lang.Class, int[]) // method@135
      0x0011: move-result-object v1
      0x0012: check-cast v1, double[][] // type@51
      0x0014: iput-object v1, v8, [[D com.android.cm3.FloatAtom.xA // field@24
      0x0016: filled-new-array {v3, v6}, type@49
      0x0019: move-result-object v1
      0x001a: sget-object  v2, Ljava/lang/Class; java.lang.Double.TYPE // field@47
      0x001c: invoke-static {v2, v1}, java.lang.Object java.lang.reflect.Array.newInstance(java.lang.Class, int[]) // method@135
      0x001f: move-result-object v1
      0x0020: check-cast v1, double[][] // type@51
      0x0022: iput-object v1, v8, [[D com.android.cm3.FloatAtom.vA // field@21
      0x0024: filled-new-array {v3, v6}, type@49
      0x0027: move-result-object v1
      0x0028: sget-object  v2, Ljava/lang/Class; java.lang.Double.TYPE // field@47
      0x002a: invoke-static {v2, v1}, java.lang.Object java.lang.reflect.Array.newInstance(java.lang.Class, int[]) // method@135
      0x002d: move-result-object v1
      0x002e: check-cast v1, double[][] // type@51
      0x0030: iput-object v1, v8, [[D com.android.cm3.FloatAtom.vB // field@22
      0x0032: const/4 v0, #+0
      0x0033: iget-object v1, v8, [[D com.android.cm3.FloatAtom.vA // field@21
      0x0035: const/4 v2, #+0
      0x0036: aget-object v1, v1, v2
      0x0038: int-to-double v2, v0
      0x0039: aput-wide v2, v1, v0
      0x003b: iget-object v1, v8, [[D com.android.cm3.FloatAtom.vA // field@21
      0x003d: aget-object v1, v1, v7
      0x003f: neg-int v2, v0
      0x0040: int-to-double v2, v2
      0x0041: aput-wide v2, v1, v0
      0x0043: iget-object v1, v8, [[D com.android.cm3.FloatAtom.vA // field@21
      0x0045: const/4 v2, #+2
      0x0046: aget-object v1, v1, v2
      0x0048: int-to-double v2, v0
      0x0049: const-wide v4, #+4614256656552045848
      0x004e: mul-double/2addr v2, v4
      0x004f: aput-wide v2, v1, v0
      0x0051: add-int/lit8 v0, v0, #+1
      0x0053: if-lt v0, v6, -32
      0x0055: return v7
    OatMethodOffsets (offset=0x000045c8)
      code_offset: 0x00008439 
      gc_map: (offset=0x00004de5)
    OatQuickMethodHeader (offset=0x00008420)
      mapping_table: (offset=0x00005428)
      vmap_table: (offset=0x0000565e)
      v0/r5, v1/r6, v8/r7, v2/r8, v65534/r10, v9/r11, v65535/r15, v2/fr16, v3/fr17, v4/fr18, v5/fr19
    QuickMethodFrameInfo
      frame_size_in_bytes: 96
      core_spill_mask: 0x00008de0 (r5, r6, r7, r8, r10, r11, r15)
      fp_spill_mask: 0x000f0000 (fr16, fr17, fr18, fr19)
    CODE: (code_offset=0x00008439 size_offset=0x00008434 size=680)...
      0x00008438: f5bd5c00	subs    r12, sp, #8192
      0x0000843c: f8dcc000	ldr.w   r12, [r12, #0]
      suspend point dex PC: 0x0000
      GC map objects:  v8 (r7)
      0x00008440: e92d4de0	push    {r5, r6, r7, r8, r10, r11, lr}
      0x00008444: ed2d8a04	vpush.f32 {s16-s19}
      0x00008448: b08d    	sub     sp, sp, #52
      0x0000844a: 4682    	mov     r10, r0
      0x0000844c: 9000    	str     r0, [sp, #0]
      0x0000844e: 1c0f    	mov     r7, r1
      0x00008450: 4693    	mov     r11, r2
      0x00008452: 2201    	movs    r2, #1
      0x00008454: 920b    	str     r2, [sp, #44]
      0x00008456: 2314    	movs    r3, #20
      0x00008458: 930a    	str     r3, [sp, #40]
      0x0000845a: f04f0c03	mov.w   r12, #3
      0x0000845e: f8cdc01c	str.w   r12, [sp, #28]
      0x00008462: f1bb0f00	cmp.w   r11, #0
      0x00008466: d001    	beq     +2 (0x0000846c)
      0x00008468: f8c7b01c	str.w   r11, [r7, #28]
      0x0000846c: f8d9e134	ldr.w   lr, [r9, #308]  ; pCheckAndAllocArray
      0x00008470: 4651    	mov     r1, r10
      0x00008472: 2202    	movs    r2, #2
      0x00008474: 2031    	movs    r0, #49
      0x00008476: 47f0    	blx     lr
      suspend point dex PC: 0x0008
      GC map objects:  v8 (r7)
      0x00008478: 2103    	movs    r1, #3
      0x0000847a: 60c1    	str     r1, [r0, #12]
      0x0000847c: 6101    	str     r1, [r0, #16]
      0x0000847e: 1c06    	mov     r6, r0
      0x00008480: 4651    	mov     r1, r10
      0x00008482: 6908    	ldr     r0, [r1, #16]
      0x00008484: f8d00098	ldr.w   r0, [r0, #152]
      0x00008488: 2800    	cmp     r0, #0
      0x0000848a: f00080da	beq.w   +436 (0x00008642)
      0x0000848e: 6e82    	ldr     r2, [r0, #104]
      0x00008490: 2a0a    	cmp     r2, #10
      0x00008492: f2c080d6	blt.w   +428 (0x00008642)
      0x00008496: f3bf8f5b	dmb     ish
      0x0000849a: f8d081c4	ldr.w   r8, [r0, #452]
      0x0000849e: f2405e39	movw    lr, #1337
      0x000084a2: f2c71ef1	movt    lr, #29169
      0x000084a6: f6432030	movw    r0, #14896
      0x000084aa: f6c67097	movt    r0, #28567
      0x000084ae: 4641    	mov     r1, r8
      0x000084b0: 1c32    	mov     r2, r6
      0x000084b2: 47f0    	blx     lr
      suspend point dex PC: 0x000e
      GC map objects:  v1 (r6), v2 (r8), v8 (r7)
      0x000084b4: 1c06    	mov     r6, r0
      0x000084b6: 4651    	mov     r1, r10
      0x000084b8: 690a    	ldr     r2, [r1, #16]
      0x000084ba: f8d220d8	ldr.w   r2, [r2, #216]
      0x000084be: 2a00    	cmp     r2, #0
      0x000084c0: f00080c4	beq.w   +392 (0x0000864c)
      0x000084c4: 1c30    	mov     r0, r6
      0x000084c6: b118    	cbz     r0, +6 (0x000084d0)
      0x000084c8: 6801    	ldr     r1, [r0, #0]
      0x000084ca: 4291    	cmp     r1, r2
      0x000084cc: f04080c4	bne.w   +392 (0x00008658)
      0x000084d0: 613e    	str     r6, [r7, #16]
      0x000084d2: b11e    	cbz     r6, +6 (0x000084dc)
      0x000084d4: f8d92078	ldr.w   r2, [r9, #120]  ; card_table
      0x000084d8: 09fb    	lsrs    r3, r7, #7
      0x000084da: 54d2    	strb    r2, [r2, r3]
      0x000084dc: f8d9e134	ldr.w   lr, [r9, #308]  ; pCheckAndAllocArray
      0x000084e0: 4651    	mov     r1, r10
      0x000084e2: 2202    	movs    r2, #2
      0x000084e4: 2031    	movs    r0, #49
      0x000084e6: 47f0    	blx     lr
      suspend point dex PC: 0x0016
      GC map objects:  v1 (r6), v2 (r8), v8 (r7)
      0x000084e8: f04f0c03	mov.w   r12, #3
      0x000084ec: f8c0c00c	str.w   r12, [r0, #12]
      0x000084f0: 2114    	movs    r1, #20
      0x000084f2: 6101    	str     r1, [r0, #16]
      0x000084f4: 1c06    	mov     r6, r0
      0x000084f6: 4651    	mov     r1, r10
      0x000084f8: 6908    	ldr     r0, [r1, #16]
      0x000084fa: f8d00098	ldr.w   r0, [r0, #152]
      0x000084fe: f8d081c4	ldr.w   r8, [r0, #452]
      0x00008502: f2405e39	movw    lr, #1337
      0x00008506: f2c71ef1	movt    lr, #29169
      0x0000850a: f6432030	movw    r0, #14896
      0x0000850e: f6c67097	movt    r0, #28567
      0x00008512: 4641    	mov     r1, r8
      0x00008514: 1c32    	mov     r2, r6
      0x00008516: 47f0    	blx     lr
      suspend point dex PC: 0x001c
      GC map objects:  v1 (r6), v2 (r8), v8 (r7)
      0x00008518: 1c06    	mov     r6, r0
      0x0000851a: 4651    	mov     r1, r10
      0x0000851c: 690a    	ldr     r2, [r1, #16]
      0x0000851e: f8d220d8	ldr.w   r2, [r2, #216]
      0x00008522: 2a00    	cmp     r2, #0
      0x00008524: f000809d	beq.w   +314 (0x00008662)
      0x00008528: 1c30    	mov     r0, r6
      0x0000852a: b118    	cbz     r0, +6 (0x00008534)
      0x0000852c: 6801    	ldr     r1, [r0, #0]
      0x0000852e: 4291    	cmp     r1, r2
      0x00008530: f040809d	bne.w   +314 (0x0000866e)
      0x00008534: 60be    	str     r6, [r7, #8]
      0x00008536: b11e    	cbz     r6, +6 (0x00008540)
      0x00008538: f8d92078	ldr.w   r2, [r9, #120]  ; card_table
      0x0000853c: 09fb    	lsrs    r3, r7, #7
      0x0000853e: 54d2    	strb    r2, [r2, r3]
      0x00008540: f8d9e134	ldr.w   lr, [r9, #308]  ; pCheckAndAllocArray
      0x00008544: 4651    	mov     r1, r10
      0x00008546: 2202    	movs    r2, #2
      0x00008548: 2031    	movs    r0, #49
      0x0000854a: 47f0    	blx     lr
      suspend point dex PC: 0x0024
      GC map objects:  v1 (r6), v2 (r8), v8 (r7)
      0x0000854c: f04f0c03	mov.w   r12, #3
      0x00008550: f8c0c00c	str.w   r12, [r0, #12]
      0x00008554: 2114    	movs    r1, #20
      0x00008556: 6101    	str     r1, [r0, #16]
      0x00008558: 1c06    	mov     r6, r0
      0x0000855a: 4651    	mov     r1, r10
      0x0000855c: 6908    	ldr     r0, [r1, #16]
      0x0000855e: f8d00098	ldr.w   r0, [r0, #152]
      0x00008562: f8d081c4	ldr.w   r8, [r0, #452]
      0x00008566: f2405e39	movw    lr, #1337
      0x0000856a: f2c71ef1	movt    lr, #29169
      0x0000856e: f6432030	movw    r0, #14896
      0x00008572: f6c67097	movt    r0, #28567
      0x00008576: 4641    	mov     r1, r8
      0x00008578: 1c32    	mov     r2, r6
      0x0000857a: 47f0    	blx     lr
      suspend point dex PC: 0x002a
      GC map objects:  v1 (r6), v2 (r8), v8 (r7)
      0x0000857c: 1c06    	mov     r6, r0
      0x0000857e: 4651    	mov     r1, r10
      0x00008580: 690a    	ldr     r2, [r1, #16]
      0x00008582: f8d220d8	ldr.w   r2, [r2, #216]
      0x00008586: 2a00    	cmp     r2, #0
      0x00008588: d076    	beq     +236 (0x00008678)
      0x0000858a: 1c30    	mov     r0, r6
      0x0000858c: b118    	cbz     r0, +6 (0x00008596)
      0x0000858e: 6801    	ldr     r1, [r0, #0]
      0x00008590: 4291    	cmp     r1, r2
      0x00008592: f0408077	bne.w   +238 (0x00008684)
      0x00008596: 60fe    	str     r6, [r7, #12]
      0x00008598: b11e    	cbz     r6, +6 (0x000085a2)
      0x0000859a: f8d92078	ldr.w   r2, [r9, #120]  ; card_table
      0x0000859e: 09fb    	lsrs    r3, r7, #7
      0x000085a0: 54d2    	strb    r2, [r2, r3]
      0x000085a2: 2500    	movs    r5, #0
      0x000085a4: 68be    	ldr     r6, [r7, #8]
      0x000085a6: f04f0800	mov.w   r8, #0
      0x000085aa: f8d6c008	ldr.w   r12, [r6, #8]
      suspend point dex PC: 0x0036
      GC map objects:  v1 (r6), v8 (r7)
      0x000085ae: f1bc0f00	cmp.w   r12, #0
      0x000085b2: d96c    	bls     +216 (0x0000868e)
      0x000085b4: 68f6    	ldr     r6, [r6, #12]
      suspend point dex PC: 0x0036
      GC map objects:  v1 (r6), v8 (r7)
      0x000085b6: ee005a10	vmov.f32 s0, r5
      0x000085ba: eeb88bc0	vcvt.f64.s32 d8, s0
      0x000085be: 68b1    	ldr     r1, [r6, #8]
      suspend point dex PC: 0x0039
      GC map objects:  v1 (r6), v8 (r7)
      0x000085c0: eb1600c5	adds.w  r0, r6, r5, lsl #3
      0x000085c4: 428d    	cmp     r5, r1
      0x000085c6: f0808067	bcs.w   +206 (0x00008698)
      0x000085ca: ed808b04	vstr.f64 d8, [r0, #16]
      suspend point dex PC: 0x0039
      GC map objects:  v1 (r6), v8 (r7)
      0x000085ce: 68be    	ldr     r6, [r7, #8]
      0x000085d0: 68b2    	ldr     r2, [r6, #8]
      suspend point dex PC: 0x003d
      GC map objects:  v1 (r6), v8 (r7)
      0x000085d2: 2a01    	cmp     r2, #1
      0x000085d4: d964    	bls     +200 (0x000086a0)
      0x000085d6: 6936    	ldr     r6, [r6, #16]
      suspend point dex PC: 0x003d
      GC map objects:  v1 (r6), v8 (r7)
      0x000085d8: f1d50800	rsbs    r8, r5, #0
      0x000085dc: ee008a90	vmov.f32 s1, r8
      0x000085e0: eeb88be0	vcvt.f64.s32 d8, s1
      0x000085e4: f8d6c008	ldr.w   r12, [r6, #8]
      suspend point dex PC: 0x0041
      GC map objects:  v1 (r6), v8 (r7)
      0x000085e8: eb1603c5	adds.w  r3, r6, r5, lsl #3
      0x000085ec: 4565    	cmp     r5, r12
      0x000085ee: f080805c	bcs.w   +184 (0x000086aa)
      0x000085f2: ed838b04	vstr.f64 d8, [r3, #16]
      suspend point dex PC: 0x0041
      GC map objects:  v1 (r6), v8 (r7)
      0x000085f6: 68be    	ldr     r6, [r7, #8]
      0x000085f8: f04f0802	mov.w   r8, #2
      0x000085fc: 68b0    	ldr     r0, [r6, #8]
      suspend point dex PC: 0x0046
      GC map objects:  v1 (r6), v8 (r7)
      0x000085fe: 2802    	cmp     r0, #2
      0x00008600: d958    	bls     +176 (0x000086b4)
      0x00008602: 6976    	ldr     r6, [r6, #20]
      suspend point dex PC: 0x0046
      GC map objects:  v1 (r6), v8 (r7)
      0x00008604: ed9f9b34	vldr.f64 d9, [pc, #208]  ; 0x400921fb54442d18
      0x00008608: ee015a10	vmov.f32 s2, r5
      0x0000860c: eeb88bc1	vcvt.f64.s32 d8, s2
      0x00008610: ee288b09	vmul.f64 d8, d8, d9
      0x00008614: 68b2    	ldr     r2, [r6, #8]
      suspend point dex PC: 0x004f
      GC map objects:  v1 (r6), v8 (r7)
      0x00008616: eb1601c5	adds.w  r1, r6, r5, lsl #3
      0x0000861a: 4295    	cmp     r5, r2
      0x0000861c: f080804f	bcs.w   +158 (0x000086be)
      0x00008620: ed818b04	vstr.f64 d8, [r1, #16]
      suspend point dex PC: 0x004f
      GC map objects:  v1 (r6), v8 (r7)
      0x00008624: 1c6d    	adds    r5, r5, #1
      0x00008626: 3c01    	subs    r4, #1
      0x00008628: f000804e	beq.w   +156 (0x000086c8)
      0x0000862c: 2d14    	cmp     r5, #20
      0x0000862e: dbb9    	blt     -142 (0x000085a4)
      0x00008630: 3c01    	subs    r4, #1
      0x00008632: f000804d	beq.w   +154 (0x000086d0)
      0x00008636: 2001    	movs    r0, #1
      0x00008638: b00d    	add     sp, sp, #52
      0x0000863a: ecbd8a04	vpop.f32 {s16-s19}
      0x0000863e: e8bd8de0	pop     {r5, r6, r7, r8, r10, r11, pc}
      0x00008642: f8d9e144	ldr.w   lr, [r9, #324]  ; pInitializeStaticStorage
      0x00008646: 2023    	movs    r0, #35
      0x00008648: 47f0    	blx     lr
      suspend point dex PC: 0x000c
      GC map objects:  v1 (r6), v8 (r7)
      0x0000864a: e724    	b       -440 (0x00008496)
      0x0000864c: f8d9e14c	ldr.w   lr, [r9, #332]  ; pInitializeType
      0x00008650: 2033    	movs    r0, #51
      0x00008652: 47f0    	blx     lr
      suspend point dex PC: 0x0012
      GC map objects:  v1 (r6), v2 (r8), v8 (r7)
      0x00008654: 1c02    	mov     r2, r0
      0x00008656: e735    	b       -406 (0x000084c4)
      0x00008658: f8d9e140	ldr.w   lr, [r9, #320]  ; pCheckCast
      0x0000865c: 1c10    	mov     r0, r2
      0x0000865e: 47f0    	blx     lr
      suspend point dex PC: 0x0012
      GC map objects:  v1 (r6), v2 (r8), v8 (r7)
      0x00008660: e736    	b       -404 (0x000084d0)
      0x00008662: f8d9e14c	ldr.w   lr, [r9, #332]  ; pInitializeType
      0x00008666: 2033    	movs    r0, #51
      0x00008668: 47f0    	blx     lr
      suspend point dex PC: 0x0020
      GC map objects:  v1 (r6), v2 (r8), v8 (r7)
      0x0000866a: 1c02    	mov     r2, r0
      0x0000866c: e75c    	b       -328 (0x00008528)
      0x0000866e: f8d9e140	ldr.w   lr, [r9, #320]  ; pCheckCast
      0x00008672: 1c10    	mov     r0, r2
      0x00008674: 47f0    	blx     lr
      suspend point dex PC: 0x0020
      GC map objects:  v1 (r6), v2 (r8), v8 (r7)
      0x00008676: e75d    	b       -326 (0x00008534)
      0x00008678: f8d9e14c	ldr.w   lr, [r9, #332]  ; pInitializeType
      0x0000867c: 2033    	movs    r0, #51
      0x0000867e: 47f0    	blx     lr
      suspend point dex PC: 0x002e
      GC map objects:  v1 (r6), v2 (r8), v8 (r7)
      0x00008680: 1c02    	mov     r2, r0
      0x00008682: e782    	b       -252 (0x0000858a)
      0x00008684: f8d9e140	ldr.w   lr, [r9, #320]  ; pCheckCast
      0x00008688: 1c10    	mov     r0, r2
      0x0000868a: 47f0    	blx     lr
      suspend point dex PC: 0x002e
      GC map objects:  v1 (r6), v2 (r8), v8 (r7)
      0x0000868c: e783    	b       -250 (0x00008596)
      0x0000868e: 4661    	mov     r1, r12
      0x00008690: 2000    	movs    r0, #0
      0x00008692: f8d9e238	ldr.w   lr, [r9, #568]  ; pThrowArrayBounds
      0x00008696: 47f0    	blx     lr
      suspend point dex PC: 0x0036
      GC map objects:  v1 (r6), v8 (r7)
      0x00008698: f8d9e238	ldr.w   lr, [r9, #568]  ; pThrowArrayBounds
      0x0000869c: 1c28    	mov     r0, r5
      0x0000869e: 47f0    	blx     lr
      suspend point dex PC: 0x0039
      GC map objects:  v1 (r6), v8 (r7)
      0x000086a0: 1c11    	mov     r1, r2
      0x000086a2: 2001    	movs    r0, #1
      0x000086a4: f8d9e238	ldr.w   lr, [r9, #568]  ; pThrowArrayBounds
      0x000086a8: 47f0    	blx     lr
      suspend point dex PC: 0x003d
      GC map objects:  v1 (r6), v8 (r7)
      0x000086aa: f8d9e238	ldr.w   lr, [r9, #568]  ; pThrowArrayBounds
      0x000086ae: 1c28    	mov     r0, r5
      0x000086b0: 4661    	mov     r1, r12
      0x000086b2: 47f0    	blx     lr
      suspend point dex PC: 0x0041
      GC map objects:  v1 (r6), v8 (r7)
      0x000086b4: 1c01    	mov     r1, r0
      0x000086b6: 2002    	movs    r0, #2
      0x000086b8: f8d9e238	ldr.w   lr, [r9, #568]  ; pThrowArrayBounds
      0x000086bc: 47f0    	blx     lr
      suspend point dex PC: 0x0046
      GC map objects:  v1 (r6), v8 (r7)
      0x000086be: f8d9e238	ldr.w   lr, [r9, #568]  ; pThrowArrayBounds
      0x000086c2: 1c28    	mov     r0, r5
      0x000086c4: 1c11    	mov     r1, r2
      0x000086c6: 47f0    	blx     lr
      suspend point dex PC: 0x004f
      GC map objects:  v1 (r6), v8 (r7)
      0x000086c8: f8d9e230	ldr.w   lr, [r9, #560]  ; pTestSuspend
      0x000086cc: 47f0    	blx     lr
      suspend point dex PC: 0x0053
      GC map objects:  v1 (r6), v8 (r7)
      0x000086ce: e7ad    	b       -166 (0x0000862c)
      0x000086d0: f8d9e230	ldr.w   lr, [r9, #560]  ; pTestSuspend
      0x000086d4: 47f0    	blx     lr
      suspend point dex PC: 0x0055
      0x000086d6: e7ae    	b       -164 (0x00008636)
      0x000086d8: 2d18    	cmp     r5, #24
      0x000086da: 5444    	strb    r4, [r0, r1]
      0x000086dc: 21fb    	movs    r1, #251
      0x000086de: 4009    	and     r1, r1
  5: void com.android.cm3.FloatAtom.setLocal() (dex_method_idx=55) 1
    DEX CODE:
      0x0000: return-void
    OatMethodOffsets (offset=0x000045d0)
      code_offset: 0x00006571 
      gc_map: (offset=0x00004842)
    OatQuickMethodHeader (offset=0x00006558)
      mapping_table: (offset=0x000050dc)
      vmap_table: (offset=0x000055db)
      
    QuickMethodFrameInfo
      frame_size_in_bytes: 0
      core_spill_mask: 0x00000000 
      fp_spill_mask: 0x00000000 
    CODE: (code_offset=0x00006571 size_offset=0x0000656c size=4)...
      0x00006570: 4770    	bx      lr
      0x00006572: 0000    	lsls    r0, r0, #0
  6: void com.android.cm3.FloatAtom.setRemote() (dex_method_idx=56) 1
    DEX CODE:
      0x0000: return-void
    OatMethodOffsets (offset=0x000045d8)
      code_offset: 0x00006571 
      gc_map: (offset=0x00004842)
    OatQuickMethodHeader (offset=0x00006558)
      mapping_table: (offset=0x000050dc)
      vmap_table: (offset=0x000055db)
      
    QuickMethodFrameInfo
      frame_size_in_bytes: 0
      core_spill_mask: 0x00000000 
      fp_spill_mask: 0x00000000 
    CODE: (code_offset=0x00006571 size_offset=0x0000656c size=4)...
      0x00006570: 4770    	bx      lr
      0x00006572: 0000    	lsls    r0, r0, #0
  7: java.lang.String com.android.cm3.FloatAtom.testName() (dex_method_idx=57) 1
    DEX CODE:
      0x0000: new-instance v0, java.lang.String // type@39
      0x0002: const-string v1, "Float" // string@28
      0x0004: invoke-direct {v0, v1}, void java.lang.String.<init>(java.lang.String) // method@121
      0x0007: return-object v0
    OatMethodOffsets (offset=0x000045e0)
      code_offset: 0x000086f9 
      gc_map: (offset=0x00004e71)
    OatQuickMethodHeader (offset=0x000086e0)
      mapping_table: (offset=0x0000546f)
      vmap_table: (offset=0x0000566a)
      v0/r5, v65534/r6, v1/r7, v65535/r15
    QuickMethodFrameInfo
      frame_size_in_bytes: 48
      core_spill_mask: 0x000080e0 (r5, r6, r7, r15)
      fp_spill_mask: 0x00000000 
    CODE: (code_offset=0x000086f9 size_offset=0x000086f4 size=104)...
      0x000086f8: f5bd5c00	subs    r12, sp, #8192
      0x000086fc: f8dcc000	ldr.w   r12, [r12, #0]
      suspend point dex PC: 0x0000
      GC map objects:  v2 ([sp + #52])
      0x00008700: e92d40e0	push    {r5, r6, r7, lr}
      0x00008704: b088    	sub     sp, sp, #32
      0x00008706: 1c06    	mov     r6, r0
      0x00008708: 9000    	str     r0, [sp, #0]
      0x0000870a: 910d    	str     r1, [sp, #52]
      0x0000870c: f8d9e12c	ldr.w   lr, [r9, #300]  ; pAllocObjectInitialized
      0x00008710: 1c31    	mov     r1, r6
      0x00008712: f6450070	movw    r0, #22640
      0x00008716: f6c6708b	movt    r0, #28555
      0x0000871a: 47f0    	blx     lr
      suspend point dex PC: 0x0000
      GC map objects:  v2 ([sp + #52])
      0x0000871c: 1c05    	mov     r5, r0
      0x0000871e: 6970    	ldr     r0, [r6, #20]
      0x00008720: 6fc0    	ldr     r0, [r0, #124]
      0x00008722: b190    	cbz     r0, +36 (0x0000874a)
      0x00008724: 1c07    	mov     r7, r0
      0x00008726: f6457e79	movw    lr, #24441
      0x0000872a: f2c71eef	movt    lr, #29167
      0x0000872e: f24d7048	movw    r0, #55112
      0x00008732: f6c67090	movt    r0, #28560
      0x00008736: 1c29    	mov     r1, r5
      0x00008738: 1c3a    	mov     r2, r7
      0x0000873a: 47f0    	blx     lr
      suspend point dex PC: 0x0004
      GC map objects:  v0 (r5), v1 (r7), v2 ([sp + #52])
      0x0000873c: 3c01    	subs    r4, #1
      0x0000873e: f000800a	beq.w   +20 (0x00008756)
      0x00008742: 1c28    	mov     r0, r5
      0x00008744: b008    	add     sp, sp, #32
      0x00008746: e8bd80e0	pop     {r5, r6, r7, pc}
      0x0000874a: f8d9e150	ldr.w   lr, [r9, #336]  ; pResolveString
      0x0000874e: 1c30    	mov     r0, r6
      0x00008750: 211c    	movs    r1, #28
      0x00008752: 47f0    	blx     lr
      suspend point dex PC: 0x0002
      GC map objects:  v0 (r5), v2 ([sp + #52])
      0x00008754: e7e6    	b       -52 (0x00008724)
      0x00008756: f8d9e230	ldr.w   lr, [r9, #560]  ; pTestSuspend
      0x0000875a: 47f0    	blx     lr
      suspend point dex PC: 0x0007
      GC map objects:  v0 (r5)
      0x0000875c: e7f1    	b       -30 (0x00008742)
      0x0000875e: 0000    	lsls    r0, r0, #0
9: Lcom/android/cm3/LogicAtom; (offset=0x000045e8) (type_idx=18) (StatusInitialized) (OatClassAllCompiled)
  0: void com.android.cm3.LogicAtom.<init>() (dex_method_idx=58) 65537
    DEX CODE:
      0x0000: invoke-direct {v1}, void java.lang.Object.<init>() // method@120
      0x0003: const/16 v0, #+1200
      0x0005: iput v0, v1, I com.android.cm3.LogicAtom.wIterationCount // field@26
      0x0007: return-void
    OatMethodOffsets (offset=0x000045ec)
      code_offset: 0x00008779 
      gc_map: (offset=0x00004e7f)
    OatQuickMethodHeader (offset=0x00008760)
      mapping_table: (offset=0x0000547b)
      vmap_table: (offset=0x00005645)
      v1/r5, v65534/r6, v65535/r15
    QuickMethodFrameInfo
      frame_size_in_bytes: 32
      core_spill_mask: 0x00008060 (r5, r6, r15)
      fp_spill_mask: 0x00000000 
    CODE: (code_offset=0x00008779 size_offset=0x00008774 size=68)...
      0x00008778: f5bd5c00	subs    r12, sp, #8192
      0x0000877c: f8dcc000	ldr.w   r12, [r12, #0]
      suspend point dex PC: 0x0000
      GC map objects:  v1 (r5)
      0x00008780: e92d4060	push    {r5, r6, lr}
      0x00008784: b085    	sub     sp, sp, #20
      0x00008786: 1c06    	mov     r6, r0
      0x00008788: 9000    	str     r0, [sp, #0]
      0x0000878a: 1c0d    	mov     r5, r1
      0x0000878c: f24b0e71	movw    lr, #45169
      0x00008790: f2c71ee7	movt    lr, #29159
      0x00008794: f24d3060	movw    r0, #54112
      0x00008798: f6c6708c	movt    r0, #28556
      0x0000879c: 1c29    	mov     r1, r5
      0x0000879e: 47f0    	blx     lr
      suspend point dex PC: 0x0000
      GC map objects:  v1 (r5)
      0x000087a0: f44f6296	mov.w   r2, #1200
      0x000087a4: 9203    	str     r2, [sp, #12]
      0x000087a6: 60aa    	str     r2, [r5, #8]
      0x000087a8: 3c01    	subs    r4, #1
      0x000087aa: f0008003	beq.w   +6 (0x000087b4)
      0x000087ae: b005    	add     sp, sp, #20
      0x000087b0: e8bd8060	pop     {r5, r6, pc}
      0x000087b4: f8d9e230	ldr.w   lr, [r9, #560]  ; pTestSuspend
      0x000087b8: 47f0    	blx     lr
      suspend point dex PC: 0x0007
      0x000087ba: e7f8    	b       -16 (0x000087ae)
  1: int com.android.cm3.LogicAtom.cleanUp() (dex_method_idx=59) 1
    DEX CODE:
      0x0000: const/4 v0, #+0
      0x0001: return v0
    OatMethodOffsets (offset=0x000045f4)
      code_offset: 0x00007ea1 
      gc_map: (offset=0x00004842)
    OatQuickMethodHeader (offset=0x00007e88)
      mapping_table: (offset=0x000050dc)
      vmap_table: (offset=0x000055db)
      
    QuickMethodFrameInfo
      frame_size_in_bytes: 0
      core_spill_mask: 0x00000000 
      fp_spill_mask: 0x00000000 
    CODE: (code_offset=0x00007ea1 size_offset=0x00007e9c size=4)...
      0x00007ea0: 2000    	movs    r0, #0
      0x00007ea2: 4770    	bx      lr
  2: int com.android.cm3.LogicAtom.defaultMagnification() (dex_method_idx=60) 1
    DEX CODE:
      0x0000: const/16 v0, #+3813
      0x0002: return v0
    OatMethodOffsets (offset=0x000045fc)
      code_offset: 0x000087d9 
      gc_map: (offset=0x00004842)
    OatQuickMethodHeader (offset=0x000087c0)
      mapping_table: (offset=0x000050dc)
      vmap_table: (offset=0x000055db)
      
    QuickMethodFrameInfo
      frame_size_in_bytes: 0
      core_spill_mask: 0x00000000 
      fp_spill_mask: 0x00000000 
    CODE: (code_offset=0x000087d9 size_offset=0x000087d4 size=8)...
      0x000087d8: f64060e5	movw    r0, #3813
      0x000087dc: 4770    	bx      lr
      0x000087de: 0000    	lsls    r0, r0, #0
  3: int com.android.cm3.LogicAtom.execute() (dex_method_idx=61) 1
    DEX CODE:
      0x0000: const/4 v12, #+1
      0x0001: const/4 v13, #+1
      0x0002: const/4 v14, #+1
      0x0003: const/4 v4, #+1
      0x0004: const/4 v5, #+1
      0x0005: const/4 v6, #+1
      0x0006: const/4 v11, #+1
      0x0007: const/4 v2, #+1
      0x0008: const/4 v3, #+1
      0x0009: const/4 v7, #+1
      0x000a: const/4 v8, #+1
      0x000b: const/4 v9, #+1
      0x000c: const/4 v10, #+1
      0x000d: const/4 v12, #+1
      0x000e: const/4 v13, #+1
      0x000f: const/4 v14, #+1
      0x0010: const/4 v4, #+1
      0x0011: const/4 v5, #+1
      0x0012: const/4 v6, #+1
      0x0013: const/4 v15, #+0
      0x0014: move-object/from16 v0, v18
      0x0016: iget v0, v0, I com.android.cm3.LogicAtom.wIterationCount // field@26
      0x0018: move/from16 v17, v0
      0x001a: move v0, v15
      0x001b: move/from16 v1, v17
      0x001d: if-lt v0, v1, +27
      0x001f: const/4 v2, #+1
      0x0020: const/4 v3, #+0
      0x0021: const/4 v7, #+1
      0x0022: const/4 v8, #+0
      0x0023: const/4 v9, #+1
      0x0024: const/4 v10, #+0
      0x0025: const/16 v16, #+0
      0x0027: move-object/from16 v0, v18
      0x0029: iget v0, v0, I com.android.cm3.LogicAtom.wIterationCount // field@26
      0x002b: move/from16 v17, v0
      0x002d: move/from16 v0, v16
      0x002f: move/from16 v1, v17
      0x0031: if-lt v0, v1, +223
      0x0033: if-nez v12, +437
      0x0035: const/16 v17, #+1
      0x0037: return v17
      0x0038: if-nez v2, +4
      0x003a: if-eqz v3, +120
      0x003c: if-nez v7, +4
      0x003e: if-eqz v8, +116
      0x0040: if-nez v9, +6
      0x0042: if-nez v10, +4
      0x0044: if-eqz v11, +110
      0x0046: if-eqz v12, +112
      0x0048: const/16 v17, #+0
      0x004a: move/from16 v12, v17
      0x004c: if-eqz v13, +111
      0x004e: const/16 v17, #+0
      0x0050: move/from16 v13, v17
      0x0052: if-eqz v14, +110
      0x0054: const/16 v17, #+0
      0x0056: move/from16 v14, v17
      0x0058: if-eqz v4, +109
      0x005a: const/16 v17, #+0
      0x005c: move/from16 v4, v17
      0x005e: if-eqz v5, +108
      0x0060: const/16 v17, #+0
      0x0062: move/from16 v5, v17
      0x0064: if-eqz v6, +107
      0x0066: const/16 v17, #+0
      0x0068: move/from16 v6, v17
      0x006a: if-eqz v2, +106
      0x006c: const/16 v17, #+0
      0x006e: move/from16 v2, v17
      0x0070: if-eqz v3, +105
      0x0072: const/16 v17, #+0
      0x0074: move/from16 v3, v17
      0x0076: if-eqz v7, +104
      0x0078: const/16 v17, #+0
      0x007a: move/from16 v7, v17
      0x007c: if-eqz v8, +103
      0x007e: const/16 v17, #+0
      0x0080: move/from16 v8, v17
      0x0082: if-eqz v9, +102
      0x0084: const/16 v17, #+0
      0x0086: move/from16 v9, v17
      0x0088: if-eqz v10, +101
      0x008a: const/16 v17, #+0
      0x008c: move/from16 v10, v17
      0x008e: if-eqz v2, +100
      0x0090: const/16 v17, #+0
      0x0092: move/from16 v2, v17
      0x0094: if-eqz v3, +99
      0x0096: const/16 v17, #+0
      0x0098: move/from16 v3, v17
      0x009a: if-eqz v7, +98
      0x009c: const/16 v17, #+0
      0x009e: move/from16 v7, v17
      0x00a0: if-eqz v8, +97
      0x00a2: const/16 v17, #+0
      0x00a4: move/from16 v8, v17
      0x00a6: if-eqz v9, +96
      0x00a8: const/16 v17, #+0
      0x00aa: move/from16 v9, v17
      0x00ac: if-eqz v10, +95
      0x00ae: const/16 v17, #+0
      0x00b0: move/from16 v10, v17
      0x00b2: add-int/lit8 v15, v15, #+1
      0x00b4: goto/16 -160
      0x00b6: const/16 v17, #+1
      0x00b8: move/from16 v12, v17
      0x00ba: goto -110
      0x00bb: const/16 v17, #+1
      0x00bd: move/from16 v13, v17
      0x00bf: goto -109
      0x00c0: const/16 v17, #+1
      0x00c2: move/from16 v14, v17
      0x00c4: goto -108
      0x00c5: const/16 v17, #+1
      0x00c7: move/from16 v4, v17
      0x00c9: goto -107
      0x00ca: const/16 v17, #+1
      0x00cc: move/from16 v5, v17
      0x00ce: goto -106
      0x00cf: const/16 v17, #+1
      0x00d1: move/from16 v6, v17
      0x00d3: goto -105
      0x00d4: const/16 v17, #+1
      0x00d6: move/from16 v2, v17
      0x00d8: goto -104
      0x00d9: const/16 v17, #+1
      0x00db: move/from16 v3, v17
      0x00dd: goto -103
      0x00de: const/16 v17, #+1
      0x00e0: move/from16 v7, v17
      0x00e2: goto -102
      0x00e3: const/16 v17, #+1
      0x00e5: move/from16 v8, v17
      0x00e7: goto -101
      0x00e8: const/16 v17, #+1
      0x00ea: move/from16 v9, v17
      0x00ec: goto -100
      0x00ed: const/16 v17, #+1
      0x00ef: move/from16 v10, v17
      0x00f1: goto -99
      0x00f2: const/16 v17, #+1
      0x00f4: move/from16 v2, v17
      0x00f6: goto -98
      0x00f7: const/16 v17, #+1
      0x00f9: move/from16 v3, v17
      0x00fb: goto -97
      0x00fc: const/16 v17, #+1
      0x00fe: move/from16 v7, v17
      0x0100: goto -96
      0x0101: const/16 v17, #+1
      0x0103: move/from16 v8, v17
      0x0105: goto -95
      0x0106: const/16 v17, #+1
      0x0108: move/from16 v9, v17
      0x010a: goto -94
      0x010b: const/16 v17, #+1
      0x010d: move/from16 v10, v17
      0x010f: goto -93
      0x0110: if-nez v2, +4
      0x0112: if-eqz v3, +120
      0x0114: if-nez v7, +4
      0x0116: if-eqz v8, +116
      0x0118: if-nez v9, +6
      0x011a: if-nez v10, +4
      0x011c: if-eqz v11, +110
      0x011e: if-eqz v2, +112
      0x0120: const/16 v17, #+0
      0x0122: move/from16 v2, v17
      0x0124: if-eqz v3, +111
      0x0126: const/16 v17, #+0
      0x0128: move/from16 v3, v17
      0x012a: if-eqz v7, +110
      0x012c: const/16 v17, #+0
      0x012e: move/from16 v7, v17
      0x0130: if-eqz v8, +109
      0x0132: const/16 v17, #+0
      0x0134: move/from16 v8, v17
      0x0136: if-eqz v9, +108
      0x0138: const/16 v17, #+0
      0x013a: move/from16 v9, v17
      0x013c: if-eqz v10, +107
      0x013e: const/16 v17, #+0
      0x0140: move/from16 v10, v17
      0x0142: if-eqz v12, +106
      0x0144: const/16 v17, #+0
      0x0146: move/from16 v12, v17
      0x0148: if-eqz v13, +105
      0x014a: const/16 v17, #+0
      0x014c: move/from16 v13, v17
      0x014e: if-eqz v14, +104
      0x0150: const/16 v17, #+0
      0x0152: move/from16 v14, v17
      0x0154: if-eqz v4, +103
      0x0156: const/16 v17, #+0
      0x0158: move/from16 v4, v17
      0x015a: if-eqz v5, +102
      0x015c: const/16 v17, #+0
      0x015e: move/from16 v5, v17
      0x0160: if-eqz v6, +101
      0x0162: const/16 v17, #+0
      0x0164: move/from16 v6, v17
      0x0166: if-eqz v12, +100
      0x0168: const/16 v17, #+0
      0x016a: move/from16 v12, v17
      0x016c: if-eqz v13, +99
      0x016e: const/16 v17, #+0
      0x0170: move/from16 v13, v17
      0x0172: if-eqz v14, +98
      0x0174: const/16 v17, #+0
      0x0176: move/from16 v14, v17
      0x0178: if-eqz v4, +97
      0x017a: const/16 v17, #+0
      0x017c: move/from16 v4, v17
      0x017e: if-eqz v5, +96
      0x0180: const/16 v17, #+0
      0x0182: move/from16 v5, v17
      0x0184: if-eqz v6, +95
      0x0186: const/16 v17, #+0
      0x0188: move/from16 v6, v17
      0x018a: add-int/lit8 v16, v16, #+1
      0x018c: goto/16 -357
      0x018e: const/16 v17, #+1
      0x0190: move/from16 v2, v17
      0x0192: goto -110
      0x0193: const/16 v17, #+1
      0x0195: move/from16 v3, v17
      0x0197: goto -109
      0x0198: const/16 v17, #+1
      0x019a: move/from16 v7, v17
      0x019c: goto -108
      0x019d: const/16 v17, #+1
      0x019f: move/from16 v8, v17
      0x01a1: goto -107
      0x01a2: const/16 v17, #+1
      0x01a4: move/from16 v9, v17
      0x01a6: goto -106
      0x01a7: const/16 v17, #+1
      0x01a9: move/from16 v10, v17
      0x01ab: goto -105
      0x01ac: const/16 v17, #+1
      0x01ae: move/from16 v12, v17
      0x01b0: goto -104
      0x01b1: const/16 v17, #+1
      0x01b3: move/from16 v13, v17
      0x01b5: goto -103
      0x01b6: const/16 v17, #+1
      0x01b8: move/from16 v14, v17
      0x01ba: goto -102
      0x01bb: const/16 v17, #+1
      0x01bd: move/from16 v4, v17
      0x01bf: goto -101
      0x01c0: const/16 v17, #+1
      0x01c2: move/from16 v5, v17
      0x01c4: goto -100
      0x01c5: const/16 v17, #+1
      0x01c7: move/from16 v6, v17
      0x01c9: goto -99
      0x01ca: const/16 v17, #+1
      0x01cc: move/from16 v12, v17
      0x01ce: goto -98
      0x01cf: const/16 v17, #+1
      0x01d1: move/from16 v13, v17
      0x01d3: goto -97
      0x01d4: const/16 v17, #+1
      0x01d6: move/from16 v14, v17
      0x01d8: goto -96
      0x01d9: const/16 v17, #+1
      0x01db: move/from16 v4, v17
      0x01dd: goto -95
      0x01de: const/16 v17, #+1
      0x01e0: move/from16 v5, v17
      0x01e2: goto -94
      0x01e3: const/16 v17, #+1
      0x01e5: move/from16 v6, v17
      0x01e7: goto -93
      0x01e8: const/16 v17, #+0
      0x01ea: goto/16 -435
    OatMethodOffsets (offset=0x00004604)
      code_offset: 0x000087f9 
      gc_map: (offset=0x00004e89)
    OatQuickMethodHeader (offset=0x000087e0)
      mapping_table: (offset=0x00005483)
      vmap_table: (offset=0x0000566f)
      v2/r5, v3/r6, v7/r7, v8/r8, v9/r10, v12/r11, v65535/r15
    QuickMethodFrameInfo
      frame_size_in_bytes: 112
      core_spill_mask: 0x00008de0 (r5, r6, r7, r8, r10, r11, r15)
      fp_spill_mask: 0x00000000 
    CODE: (code_offset=0x000087f9 size_offset=0x000087f4 size=1180)...
      0x000087f8: e92d4de0	push    {r5, r6, r7, r8, r10, r11, lr}
      0x000087fc: b095    	sub     sp, sp, #84
      0x000087fe: 9000    	str     r0, [sp, #0]
      0x00008800: 911d    	str     r1, [sp, #116]
      0x00008802: f04f0b01	mov.w   r11, #1
      0x00008806: 2201    	movs    r2, #1
      0x00008808: 920f    	str     r2, [sp, #60]
      0x0000880a: 2301    	movs    r3, #1
      0x0000880c: 9310    	str     r3, [sp, #64]
      0x0000880e: f04f0c01	mov.w   r12, #1
      0x00008812: f8cdc018	str.w   r12, [sp, #24]
      0x00008816: 2001    	movs    r0, #1
      0x00008818: 9007    	str     r0, [sp, #28]
      0x0000881a: 2101    	movs    r1, #1
      0x0000881c: 9108    	str     r1, [sp, #32]
      0x0000881e: 2201    	movs    r2, #1
      0x00008820: 920d    	str     r2, [sp, #52]
      0x00008822: 2501    	movs    r5, #1
      0x00008824: 2601    	movs    r6, #1
      0x00008826: 2701    	movs    r7, #1
      0x00008828: f04f0801	mov.w   r8, #1
      0x0000882c: f04f0a01	mov.w   r10, #1
      0x00008830: 2301    	movs    r3, #1
      0x00008832: 930c    	str     r3, [sp, #48]
      0x00008834: f04f0b01	mov.w   r11, #1
      0x00008838: f04f0c01	mov.w   r12, #1
      0x0000883c: f8cdc03c	str.w   r12, [sp, #60]
      0x00008840: 2001    	movs    r0, #1
      0x00008842: 9010    	str     r0, [sp, #64]
      0x00008844: 2101    	movs    r1, #1
      0x00008846: 9106    	str     r1, [sp, #24]
      0x00008848: 2201    	movs    r2, #1
      0x0000884a: 9207    	str     r2, [sp, #28]
      0x0000884c: 2301    	movs    r3, #1
      0x0000884e: 9308    	str     r3, [sp, #32]
      0x00008850: f04f0c00	mov.w   r12, #0
      0x00008854: f8cdc044	str.w   r12, [sp, #68]
      0x00008858: 981d    	ldr     r0, [sp, #116]
      0x0000885a: 9002    	str     r0, [sp, #8]
      0x0000885c: 6880    	ldr     r0, [r0, #8]
      0x0000885e: 1c01    	mov     r1, r0
      0x00008860: 9811    	ldr     r0, [sp, #68]
      0x00008862: 9113    	str     r1, [sp, #76]
      0x00008864: 9002    	str     r0, [sp, #8]
      0x00008866: 1c0a    	mov     r2, r1
      0x00008868: 9203    	str     r2, [sp, #12]
      0x0000886a: 4290    	cmp     r0, r2
      0x0000886c: f2c0811f	blt.w   +574 (0x00008aae)
      0x00008870: 2501    	movs    r5, #1
      0x00008872: 2600    	movs    r6, #0
      0x00008874: 2701    	movs    r7, #1
      0x00008876: f04f0800	mov.w   r8, #0
      0x0000887a: f04f0a01	mov.w   r10, #1
      0x0000887e: 2300    	movs    r3, #0
      0x00008880: 930c    	str     r3, [sp, #48]
      0x00008882: f04f0c00	mov.w   r12, #0
      0x00008886: f8cdc048	str.w   r12, [sp, #72]
      0x0000888a: 981d    	ldr     r0, [sp, #116]
      0x0000888c: 9002    	str     r0, [sp, #8]
      0x0000888e: 6880    	ldr     r0, [r0, #8]
      0x00008890: 1c01    	mov     r1, r0
      0x00008892: 9812    	ldr     r0, [sp, #72]
      0x00008894: 9113    	str     r1, [sp, #76]
      0x00008896: 9002    	str     r0, [sp, #8]
      0x00008898: 1c0a    	mov     r2, r1
      0x0000889a: 9203    	str     r2, [sp, #12]
      0x0000889c: 4290    	cmp     r0, r2
      0x0000889e: f2c0800c	blt.w   +24 (0x000088ba)
      0x000088a2: f1db0301	rsbs    r3, r11, #1
      0x000088a6: bf98    	it      ls
      0x000088a8: 2300    	movsls  r3, #0
      0x000088aa: 9313    	str     r3, [sp, #76]
      0x000088ac: 3c01    	subs    r4, #1
      0x000088ae: f00081e4	beq.w   +968 (0x00008c7a)
      0x000088b2: 9813    	ldr     r0, [sp, #76]
      0x000088b4: b015    	add     sp, sp, #84
      0x000088b6: e8bd8de0	pop     {r5, r6, r7, r8, r10, r11, pc}
      0x000088ba: b915    	cbnz    r5, +4 (0x000088c2)
      0x000088bc: 2e00    	cmp     r6, #0
      0x000088be: f0008093	beq.w   +294 (0x000089e8)
      0x000088c2: b91f    	cbnz    r7, +6 (0x000088cc)
      0x000088c4: f1b80f00	cmp.w   r8, #0
      0x000088c8: f000808e	beq.w   +284 (0x000089e8)
      0x000088cc: f1ba0f00	cmp.w   r10, #0
      0x000088d0: d104    	bne     +8 (0x000088dc)
      0x000088d2: f8ddc030	ldr.w   r12, [sp, #48]
      0x000088d6: f1bc0f00	cmp.w   r12, #0
      0x000088da: d1ff    	bne     -2 (0x000088dc)
      0x000088dc: 2d00    	cmp     r5, #0
      0x000088de: f00080e0	beq.w   +448 (0x00008aa2)
      0x000088e2: 2000    	movs    r0, #0
      0x000088e4: 9013    	str     r0, [sp, #76]
      0x000088e6: 1c05    	mov     r5, r0
      0x000088e8: 2e00    	cmp     r6, #0
      0x000088ea: f00080d6	beq.w   +428 (0x00008a9a)
      0x000088ee: 2100    	movs    r1, #0
      0x000088f0: 9113    	str     r1, [sp, #76]
      0x000088f2: 1c0e    	mov     r6, r1
      0x000088f4: 2f00    	cmp     r7, #0
      0x000088f6: f00080cc	beq.w   +408 (0x00008a92)
      0x000088fa: 2200    	movs    r2, #0
      0x000088fc: 9213    	str     r2, [sp, #76]
      0x000088fe: 1c17    	mov     r7, r2
      0x00008900: f1b80f00	cmp.w   r8, #0
      0x00008904: f00080c1	beq.w   +386 (0x00008a8a)
      0x00008908: 2300    	movs    r3, #0
      0x0000890a: 9313    	str     r3, [sp, #76]
      0x0000890c: 4698    	mov     r8, r3
      0x0000890e: f1ba0f00	cmp.w   r10, #0
      0x00008912: f00080b6	beq.w   +364 (0x00008a82)
      0x00008916: f04f0c00	mov.w   r12, #0
      0x0000891a: f8cdc04c	str.w   r12, [sp, #76]
      0x0000891e: 46e2    	mov     r10, r12
      0x00008920: 980c    	ldr     r0, [sp, #48]
      0x00008922: 2800    	cmp     r0, #0
      0x00008924: f00080a7	beq.w   +334 (0x00008a76)
      0x00008928: 2100    	movs    r1, #0
      0x0000892a: 9113    	str     r1, [sp, #76]
      0x0000892c: 1c0a    	mov     r2, r1
      0x0000892e: 920c    	str     r2, [sp, #48]
      0x00008930: f1bb0f00	cmp.w   r11, #0
      0x00008934: f000809b	beq.w   +310 (0x00008a6e)
      0x00008938: 2300    	movs    r3, #0
      0x0000893a: 9313    	str     r3, [sp, #76]
      0x0000893c: 469b    	mov     r11, r3
      0x0000893e: f8ddc03c	ldr.w   r12, [sp, #60]
      0x00008942: f1bc0f00	cmp.w   r12, #0
      0x00008946: f000808d	beq.w   +282 (0x00008a64)
      0x0000894a: 2000    	movs    r0, #0
      0x0000894c: 9013    	str     r0, [sp, #76]
      0x0000894e: 1c01    	mov     r1, r0
      0x00008950: 910f    	str     r1, [sp, #60]
      0x00008952: 9a10    	ldr     r2, [sp, #64]
      0x00008954: 2a00    	cmp     r2, #0
      0x00008956: d07f    	beq     +254 (0x00008a58)
      0x00008958: 2300    	movs    r3, #0
      0x0000895a: 9313    	str     r3, [sp, #76]
      0x0000895c: 469c    	mov     r12, r3
      0x0000895e: f8cdc040	str.w   r12, [sp, #64]
      0x00008962: 9806    	ldr     r0, [sp, #24]
      0x00008964: 2800    	cmp     r0, #0
      0x00008966: d072    	beq     +228 (0x00008a4e)
      0x00008968: 2100    	movs    r1, #0
      0x0000896a: 9113    	str     r1, [sp, #76]
      0x0000896c: 1c0a    	mov     r2, r1
      0x0000896e: 9206    	str     r2, [sp, #24]
      0x00008970: 9b07    	ldr     r3, [sp, #28]
      0x00008972: 2b00    	cmp     r3, #0
      0x00008974: d064    	beq     +200 (0x00008a40)
      0x00008976: f04f0c00	mov.w   r12, #0
      0x0000897a: f8cdc04c	str.w   r12, [sp, #76]
      0x0000897e: 4660    	mov     r0, r12
      0x00008980: 9007    	str     r0, [sp, #28]
      0x00008982: 9908    	ldr     r1, [sp, #32]
      0x00008984: 2900    	cmp     r1, #0
      0x00008986: d056    	beq     +172 (0x00008a36)
      0x00008988: 2200    	movs    r2, #0
      0x0000898a: 9213    	str     r2, [sp, #76]
      0x0000898c: 1c13    	mov     r3, r2
      0x0000898e: 9308    	str     r3, [sp, #32]
      0x00008990: f1bb0f00	cmp.w   r11, #0
      0x00008994: d04b    	beq     +150 (0x00008a2e)
      0x00008996: f04f0c00	mov.w   r12, #0
      0x0000899a: f8cdc04c	str.w   r12, [sp, #76]
      0x0000899e: 46e3    	mov     r11, r12
      0x000089a0: 980f    	ldr     r0, [sp, #60]
      0x000089a2: b3e8    	cbz     r0, +122 (0x00008a20)
      0x000089a4: 2100    	movs    r1, #0
      0x000089a6: 9113    	str     r1, [sp, #76]
      0x000089a8: 1c0a    	mov     r2, r1
      0x000089aa: 920f    	str     r2, [sp, #60]
      0x000089ac: 9b10    	ldr     r3, [sp, #64]
      0x000089ae: b393    	cbz     r3, +100 (0x00008a16)
      0x000089b0: f04f0c00	mov.w   r12, #0
      0x000089b4: f8cdc04c	str.w   r12, [sp, #76]
      0x000089b8: 4660    	mov     r0, r12
      0x000089ba: 9010    	str     r0, [sp, #64]
      0x000089bc: 9906    	ldr     r1, [sp, #24]
      0x000089be: b329    	cbz     r1, +74 (0x00008a0c)
      0x000089c0: 2200    	movs    r2, #0
      0x000089c2: 9213    	str     r2, [sp, #76]
      0x000089c4: 1c13    	mov     r3, r2
      0x000089c6: 9306    	str     r3, [sp, #24]
      0x000089c8: f8ddc01c	ldr.w   r12, [sp, #28]
      0x000089cc: f1bc0f00	cmp.w   r12, #0
      0x000089d0: d016    	beq     +44 (0x00008a00)
      0x000089d2: 2000    	movs    r0, #0
      0x000089d4: 9013    	str     r0, [sp, #76]
      0x000089d6: 1c01    	mov     r1, r0
      0x000089d8: 9107    	str     r1, [sp, #28]
      0x000089da: 9a08    	ldr     r2, [sp, #32]
      0x000089dc: b15a    	cbz     r2, +22 (0x000089f6)
      0x000089de: 2300    	movs    r3, #0
      0x000089e0: 9313    	str     r3, [sp, #76]
      0x000089e2: 469c    	mov     r12, r3
      0x000089e4: f8cdc020	str.w   r12, [sp, #32]
      0x000089e8: 9812    	ldr     r0, [sp, #72]
      0x000089ea: 1c40    	adds    r0, r0, #1
      0x000089ec: 9012    	str     r0, [sp, #72]
      0x000089ee: 3c01    	subs    r4, #1
      0x000089f0: f47faf4b	bne.w   -362 (0x0000888a)
      0x000089f4: e145    	b       +650 (0x00008c82)
      0x000089f6: 2101    	movs    r1, #1
      0x000089f8: 9113    	str     r1, [sp, #76]
      0x000089fa: 1c0a    	mov     r2, r1
      0x000089fc: 9208    	str     r2, [sp, #32]
      0x000089fe: e7f3    	b       -26 (0x000089e8)
      0x00008a00: 2301    	movs    r3, #1
      0x00008a02: 9313    	str     r3, [sp, #76]
      0x00008a04: 469c    	mov     r12, r3
      0x00008a06: f8cdc01c	str.w   r12, [sp, #28]
      0x00008a0a: e7e6    	b       -52 (0x000089da)
      0x00008a0c: 2001    	movs    r0, #1
      0x00008a0e: 9013    	str     r0, [sp, #76]
      0x00008a10: 1c01    	mov     r1, r0
      0x00008a12: 9106    	str     r1, [sp, #24]
      0x00008a14: e7d8    	b       -80 (0x000089c8)
      0x00008a16: 2201    	movs    r2, #1
      0x00008a18: 9213    	str     r2, [sp, #76]
      0x00008a1a: 1c13    	mov     r3, r2
      0x00008a1c: 9310    	str     r3, [sp, #64]
      0x00008a1e: e7cd    	b       -102 (0x000089bc)
      0x00008a20: f04f0c01	mov.w   r12, #1
      0x00008a24: f8cdc04c	str.w   r12, [sp, #76]
      0x00008a28: 4660    	mov     r0, r12
      0x00008a2a: 900f    	str     r0, [sp, #60]
      0x00008a2c: e7be    	b       -132 (0x000089ac)
      0x00008a2e: 2101    	movs    r1, #1
      0x00008a30: 9113    	str     r1, [sp, #76]
      0x00008a32: 468b    	mov     r11, r1
      0x00008a34: e7b4    	b       -152 (0x000089a0)
      0x00008a36: 2201    	movs    r2, #1
      0x00008a38: 9213    	str     r2, [sp, #76]
      0x00008a3a: 1c13    	mov     r3, r2
      0x00008a3c: 9308    	str     r3, [sp, #32]
      0x00008a3e: e7a7    	b       -178 (0x00008990)
      0x00008a40: f04f0c01	mov.w   r12, #1
      0x00008a44: f8cdc04c	str.w   r12, [sp, #76]
      0x00008a48: 4660    	mov     r0, r12
      0x00008a4a: 9007    	str     r0, [sp, #28]
      0x00008a4c: e799    	b       -206 (0x00008982)
      0x00008a4e: 2101    	movs    r1, #1
      0x00008a50: 9113    	str     r1, [sp, #76]
      0x00008a52: 1c0a    	mov     r2, r1
      0x00008a54: 9206    	str     r2, [sp, #24]
      0x00008a56: e78b    	b       -234 (0x00008970)
      0x00008a58: 2301    	movs    r3, #1
      0x00008a5a: 9313    	str     r3, [sp, #76]
      0x00008a5c: 469c    	mov     r12, r3
      0x00008a5e: f8cdc040	str.w   r12, [sp, #64]
      0x00008a62: e77e    	b       -260 (0x00008962)
      0x00008a64: 2001    	movs    r0, #1
      0x00008a66: 9013    	str     r0, [sp, #76]
      0x00008a68: 1c01    	mov     r1, r0
      0x00008a6a: 910f    	str     r1, [sp, #60]
      0x00008a6c: e771    	b       -286 (0x00008952)
      0x00008a6e: 2201    	movs    r2, #1
      0x00008a70: 9213    	str     r2, [sp, #76]
      0x00008a72: 4693    	mov     r11, r2
      0x00008a74: e763    	b       -314 (0x0000893e)
      0x00008a76: 2301    	movs    r3, #1
      0x00008a78: 9313    	str     r3, [sp, #76]
      0x00008a7a: 469c    	mov     r12, r3
      0x00008a7c: f8cdc030	str.w   r12, [sp, #48]
      0x00008a80: e756    	b       -340 (0x00008930)
      0x00008a82: 2001    	movs    r0, #1
      0x00008a84: 9013    	str     r0, [sp, #76]
      0x00008a86: 4682    	mov     r10, r0
      0x00008a88: e74a    	b       -364 (0x00008920)
      0x00008a8a: 2101    	movs    r1, #1
      0x00008a8c: 9113    	str     r1, [sp, #76]
      0x00008a8e: 4688    	mov     r8, r1
      0x00008a90: e73d    	b       -390 (0x0000890e)
      0x00008a92: 2201    	movs    r2, #1
      0x00008a94: 9213    	str     r2, [sp, #76]
      0x00008a96: 1c17    	mov     r7, r2
      0x00008a98: e732    	b       -412 (0x00008900)
      0x00008a9a: 2301    	movs    r3, #1
      0x00008a9c: 9313    	str     r3, [sp, #76]
      0x00008a9e: 1c1e    	mov     r6, r3
      0x00008aa0: e728    	b       -432 (0x000088f4)
      0x00008aa2: f04f0c01	mov.w   r12, #1
      0x00008aa6: f8cdc04c	str.w   r12, [sp, #76]
      0x00008aaa: 4665    	mov     r5, r12
      0x00008aac: e71c    	b       -456 (0x000088e8)
      0x00008aae: b915    	cbnz    r5, +4 (0x00008ab6)
      0x00008ab0: 2e00    	cmp     r6, #0
      0x00008ab2: f0008083	beq.w   +262 (0x00008bbc)
      0x00008ab6: b917    	cbnz    r7, +4 (0x00008abe)
      0x00008ab8: f1b80f00	cmp.w   r8, #0
      0x00008abc: d07e    	beq     +252 (0x00008bbc)
      0x00008abe: f1ba0f00	cmp.w   r10, #0
      0x00008ac2: d102    	bne     +4 (0x00008aca)
      0x00008ac4: 980c    	ldr     r0, [sp, #48]
      0x00008ac6: 2800    	cmp     r0, #0
      0x00008ac8: d1ff    	bne     -2 (0x00008aca)
      0x00008aca: f1bb0f00	cmp.w   r11, #0
      0x00008ace: f00080d0	beq.w   +416 (0x00008c72)
      0x00008ad2: 2100    	movs    r1, #0
      0x00008ad4: 9113    	str     r1, [sp, #76]
      0x00008ad6: 468b    	mov     r11, r1
      0x00008ad8: 9a0f    	ldr     r2, [sp, #60]
      0x00008ada: 2a00    	cmp     r2, #0
      0x00008adc: f00080c4	beq.w   +392 (0x00008c68)
      0x00008ae0: 2300    	movs    r3, #0
      0x00008ae2: 9313    	str     r3, [sp, #76]
      0x00008ae4: 469c    	mov     r12, r3
      0x00008ae6: f8cdc03c	str.w   r12, [sp, #60]
      0x00008aea: 9810    	ldr     r0, [sp, #64]
      0x00008aec: 2800    	cmp     r0, #0
      0x00008aee: f00080b4	beq.w   +360 (0x00008c5a)
      0x00008af2: 2100    	movs    r1, #0
      0x00008af4: 9113    	str     r1, [sp, #76]
      0x00008af6: 1c0a    	mov     r2, r1
      0x00008af8: 9210    	str     r2, [sp, #64]
      0x00008afa: 9b06    	ldr     r3, [sp, #24]
      0x00008afc: 2b00    	cmp     r3, #0
      0x00008afe: f00080a7	beq.w   +334 (0x00008c50)
      0x00008b02: f04f0c00	mov.w   r12, #0
      0x00008b06: f8cdc04c	str.w   r12, [sp, #76]
      0x00008b0a: 4660    	mov     r0, r12
      0x00008b0c: 9006    	str     r0, [sp, #24]
      0x00008b0e: 9907    	ldr     r1, [sp, #28]
      0x00008b10: 2900    	cmp     r1, #0
      0x00008b12: f0008098	beq.w   +304 (0x00008c46)
      0x00008b16: 2200    	movs    r2, #0
      0x00008b18: 9213    	str     r2, [sp, #76]
      0x00008b1a: 1c13    	mov     r3, r2
      0x00008b1c: 9307    	str     r3, [sp, #28]
      0x00008b1e: f8ddc020	ldr.w   r12, [sp, #32]
      0x00008b22: f1bc0f00	cmp.w   r12, #0
      0x00008b26: f0008088	beq.w   +272 (0x00008c3a)
      0x00008b2a: 2000    	movs    r0, #0
      0x00008b2c: 9013    	str     r0, [sp, #76]
      0x00008b2e: 1c01    	mov     r1, r0
      0x00008b30: 9108    	str     r1, [sp, #32]
      0x00008b32: 2d00    	cmp     r5, #0
      0x00008b34: d07d    	beq     +250 (0x00008c32)
      0x00008b36: 2200    	movs    r2, #0
      0x00008b38: 9213    	str     r2, [sp, #76]
      0x00008b3a: 1c15    	mov     r5, r2
      0x00008b3c: 2e00    	cmp     r6, #0
      0x00008b3e: d074    	beq     +232 (0x00008c2a)
      0x00008b40: 2300    	movs    r3, #0
      0x00008b42: 9313    	str     r3, [sp, #76]
      0x00008b44: 1c1e    	mov     r6, r3
      0x00008b46: 2f00    	cmp     r7, #0
      0x00008b48: d06b    	beq     +214 (0x00008c22)
      0x00008b4a: f04f0c00	mov.w   r12, #0
      0x00008b4e: f8cdc04c	str.w   r12, [sp, #76]
      0x00008b52: 4667    	mov     r7, r12
      0x00008b54: f1b80f00	cmp.w   r8, #0
      0x00008b58: d05d    	beq     +186 (0x00008c16)
      0x00008b5a: 2000    	movs    r0, #0
      0x00008b5c: 9013    	str     r0, [sp, #76]
      0x00008b5e: 4680    	mov     r8, r0
      0x00008b60: f1ba0f00	cmp.w   r10, #0
      0x00008b64: d053    	beq     +166 (0x00008c0e)
      0x00008b66: 2100    	movs    r1, #0
      0x00008b68: 9113    	str     r1, [sp, #76]
      0x00008b6a: 468a    	mov     r10, r1
      0x00008b6c: 9a0c    	ldr     r2, [sp, #48]
      0x00008b6e: 2a00    	cmp     r2, #0
      0x00008b70: d048    	beq     +144 (0x00008c04)
      0x00008b72: 2300    	movs    r3, #0
      0x00008b74: 9313    	str     r3, [sp, #76]
      0x00008b76: 469c    	mov     r12, r3
      0x00008b78: f8cdc030	str.w   r12, [sp, #48]
      0x00008b7c: b3f5    	cbz     r5, +124 (0x00008bfc)
      0x00008b7e: 2000    	movs    r0, #0
      0x00008b80: 9013    	str     r0, [sp, #76]
      0x00008b82: 1c05    	mov     r5, r0
      0x00008b84: b3a6    	cbz     r6, +104 (0x00008bf0)
      0x00008b86: 2100    	movs    r1, #0
      0x00008b88: 9113    	str     r1, [sp, #76]
      0x00008b8a: 1c0e    	mov     r6, r1
      0x00008b8c: b367    	cbz     r7, +88 (0x00008be8)
      0x00008b8e: 2200    	movs    r2, #0
      0x00008b90: 9213    	str     r2, [sp, #76]
      0x00008b92: 1c17    	mov     r7, r2
      0x00008b94: f1b80f00	cmp.w   r8, #0
      0x00008b98: d022    	beq     +68 (0x00008be0)
      0x00008b9a: 2300    	movs    r3, #0
      0x00008b9c: 9313    	str     r3, [sp, #76]
      0x00008b9e: 4698    	mov     r8, r3
      0x00008ba0: f1ba0f00	cmp.w   r10, #0
      0x00008ba4: d018    	beq     +48 (0x00008bd8)
      0x00008ba6: f04f0c00	mov.w   r12, #0
      0x00008baa: f8cdc04c	str.w   r12, [sp, #76]
      0x00008bae: 46e2    	mov     r10, r12
      0x00008bb0: 980c    	ldr     r0, [sp, #48]
      0x00008bb2: b150    	cbz     r0, +20 (0x00008bca)
      0x00008bb4: 2100    	movs    r1, #0
      0x00008bb6: 9113    	str     r1, [sp, #76]
      0x00008bb8: 1c0a    	mov     r2, r1
      0x00008bba: 920c    	str     r2, [sp, #48]
      0x00008bbc: 9b11    	ldr     r3, [sp, #68]
      0x00008bbe: 1c5b    	adds    r3, r3, #1
      0x00008bc0: 9311    	str     r3, [sp, #68]
      0x00008bc2: 3c01    	subs    r4, #1
      0x00008bc4: f47fae48	bne.w   -880 (0x00008858)
      0x00008bc8: e05f    	b       +190 (0x00008c8a)
      0x00008bca: f04f0c01	mov.w   r12, #1
      0x00008bce: f8cdc04c	str.w   r12, [sp, #76]
      0x00008bd2: 4660    	mov     r0, r12
      0x00008bd4: 900c    	str     r0, [sp, #48]
      0x00008bd6: e7f1    	b       -30 (0x00008bbc)
      0x00008bd8: 2101    	movs    r1, #1
      0x00008bda: 9113    	str     r1, [sp, #76]
      0x00008bdc: 468a    	mov     r10, r1
      0x00008bde: e7e7    	b       -50 (0x00008bb0)
      0x00008be0: 2201    	movs    r2, #1
      0x00008be2: 9213    	str     r2, [sp, #76]
      0x00008be4: 4690    	mov     r8, r2
      0x00008be6: e7db    	b       -74 (0x00008ba0)
      0x00008be8: 2301    	movs    r3, #1
      0x00008bea: 9313    	str     r3, [sp, #76]
      0x00008bec: 1c1f    	mov     r7, r3
      0x00008bee: e7d1    	b       -94 (0x00008b94)
      0x00008bf0: f04f0c01	mov.w   r12, #1
      0x00008bf4: f8cdc04c	str.w   r12, [sp, #76]
      0x00008bf8: 4666    	mov     r6, r12
      0x00008bfa: e7c7    	b       -114 (0x00008b8c)
      0x00008bfc: 2001    	movs    r0, #1
      0x00008bfe: 9013    	str     r0, [sp, #76]
      0x00008c00: 1c05    	mov     r5, r0
      0x00008c02: e7bf    	b       -130 (0x00008b84)
      0x00008c04: 2101    	movs    r1, #1
      0x00008c06: 9113    	str     r1, [sp, #76]
      0x00008c08: 1c0a    	mov     r2, r1
      0x00008c0a: 920c    	str     r2, [sp, #48]
      0x00008c0c: e7b6    	b       -148 (0x00008b7c)
      0x00008c0e: 2301    	movs    r3, #1
      0x00008c10: 9313    	str     r3, [sp, #76]
      0x00008c12: 469a    	mov     r10, r3
      0x00008c14: e7aa    	b       -172 (0x00008b6c)
      0x00008c16: f04f0c01	mov.w   r12, #1
      0x00008c1a: f8cdc04c	str.w   r12, [sp, #76]
      0x00008c1e: 46e0    	mov     r8, r12
      0x00008c20: e79e    	b       -196 (0x00008b60)
      0x00008c22: 2001    	movs    r0, #1
      0x00008c24: 9013    	str     r0, [sp, #76]
      0x00008c26: 1c07    	mov     r7, r0
      0x00008c28: e794    	b       -216 (0x00008b54)
      0x00008c2a: 2101    	movs    r1, #1
      0x00008c2c: 9113    	str     r1, [sp, #76]
      0x00008c2e: 1c0e    	mov     r6, r1
      0x00008c30: e789    	b       -238 (0x00008b46)
      0x00008c32: 2201    	movs    r2, #1
      0x00008c34: 9213    	str     r2, [sp, #76]
      0x00008c36: 1c15    	mov     r5, r2
      0x00008c38: e780    	b       -256 (0x00008b3c)
      0x00008c3a: 2301    	movs    r3, #1
      0x00008c3c: 9313    	str     r3, [sp, #76]
      0x00008c3e: 469c    	mov     r12, r3
      0x00008c40: f8cdc020	str.w   r12, [sp, #32]
      0x00008c44: e775    	b       -278 (0x00008b32)
      0x00008c46: 2001    	movs    r0, #1
      0x00008c48: 9013    	str     r0, [sp, #76]
      0x00008c4a: 1c01    	mov     r1, r0
      0x00008c4c: 9107    	str     r1, [sp, #28]
      0x00008c4e: e766    	b       -308 (0x00008b1e)
      0x00008c50: 2201    	movs    r2, #1
      0x00008c52: 9213    	str     r2, [sp, #76]
      0x00008c54: 1c13    	mov     r3, r2
      0x00008c56: 9306    	str     r3, [sp, #24]
      0x00008c58: e759    	b       -334 (0x00008b0e)
      0x00008c5a: f04f0c01	mov.w   r12, #1
      0x00008c5e: f8cdc04c	str.w   r12, [sp, #76]
      0x00008c62: 4660    	mov     r0, r12
      0x00008c64: 9010    	str     r0, [sp, #64]
      0x00008c66: e748    	b       -368 (0x00008afa)
      0x00008c68: 2101    	movs    r1, #1
      0x00008c6a: 9113    	str     r1, [sp, #76]
      0x00008c6c: 1c0a    	mov     r2, r1
      0x00008c6e: 920f    	str     r2, [sp, #60]
      0x00008c70: e73b    	b       -394 (0x00008aea)
      0x00008c72: 2301    	movs    r3, #1
      0x00008c74: 9313    	str     r3, [sp, #76]
      0x00008c76: 469b    	mov     r11, r3
      0x00008c78: e72e    	b       -420 (0x00008ad8)
      0x00008c7a: f8d9e230	ldr.w   lr, [r9, #560]  ; pTestSuspend
      0x00008c7e: 47f0    	blx     lr
      suspend point dex PC: 0x0037
      0x00008c80: e617    	b       -978 (0x000088b2)
      0x00008c82: f8d9e230	ldr.w   lr, [r9, #560]  ; pTestSuspend
      0x00008c86: 47f0    	blx     lr
      suspend point dex PC: 0x018c
      GC map objects:  v18 ([sp + #116])
      0x00008c88: e5ff    	b       -1026 (0x0000888a)
      0x00008c8a: f8d9e230	ldr.w   lr, [r9, #560]  ; pTestSuspend
      0x00008c8e: 47f0    	blx     lr
      suspend point dex PC: 0x00b4
      GC map objects:  v18 ([sp + #116])
      0x00008c90: e5e2    	b       -1084 (0x00008858)
      0x00008c92: 0000    	lsls    r0, r0, #0
  4: boolean com.android.cm3.LogicAtom.initialize(int) (dex_method_idx=62) 1
    DEX CODE:
      0x0000: if-eqz v2, +4
      0x0002: iput v2, v1, I com.android.cm3.LogicAtom.wIterationCount // field@26
      0x0004: const/4 v0, #+1
      0x0005: return v0
    OatMethodOffsets (offset=0x0000460c)
      code_offset: 0x00008cb1 
      gc_map: (offset=0x00004e9c)
    OatQuickMethodHeader (offset=0x00008c98)
      mapping_table: (offset=0x0000548e)
      vmap_table: (offset=0x00005677)
      v2/r5, v1/r6, v65535/r15
    QuickMethodFrameInfo
      frame_size_in_bytes: 32
      core_spill_mask: 0x00008060 (r5, r6, r15)
      fp_spill_mask: 0x00000000 
    CODE: (code_offset=0x00008cb1 size_offset=0x00008cac size=44)...
      0x00008cb0: e92d4060	push    {r5, r6, lr}
      0x00008cb4: b085    	sub     sp, sp, #20
      0x00008cb6: 9000    	str     r0, [sp, #0]
      0x00008cb8: 1c0e    	mov     r6, r1
      0x00008cba: 1c15    	mov     r5, r2
      0x00008cbc: b105    	cbz     r5, +0 (0x00008cc0)
      0x00008cbe: 60b5    	str     r5, [r6, #8]
      0x00008cc0: 2201    	movs    r2, #1
      0x00008cc2: 9203    	str     r2, [sp, #12]
      0x00008cc4: 3c01    	subs    r4, #1
      0x00008cc6: f0008004	beq.w   +8 (0x00008cd2)
      0x00008cca: 2001    	movs    r0, #1
      0x00008ccc: b005    	add     sp, sp, #20
      0x00008cce: e8bd8060	pop     {r5, r6, pc}
      0x00008cd2: f8d9e230	ldr.w   lr, [r9, #560]  ; pTestSuspend
      0x00008cd6: 47f0    	blx     lr
      suspend point dex PC: 0x0005
      0x00008cd8: e7f7    	b       -18 (0x00008cca)
      0x00008cda: 0000    	lsls    r0, r0, #0
  5: void com.android.cm3.LogicAtom.setLocal() (dex_method_idx=63) 1
    DEX CODE:
      0x0000: return-void
    OatMethodOffsets (offset=0x00004614)
      code_offset: 0x00006571 
      gc_map: (offset=0x00004842)
    OatQuickMethodHeader (offset=0x00006558)
      mapping_table: (offset=0x000050dc)
      vmap_table: (offset=0x000055db)
      
    QuickMethodFrameInfo
      frame_size_in_bytes: 0
      core_spill_mask: 0x00000000 
      fp_spill_mask: 0x00000000 
    CODE: (code_offset=0x00006571 size_offset=0x0000656c size=4)...
      0x00006570: 4770    	bx      lr
      0x00006572: 0000    	lsls    r0, r0, #0
  6: void com.android.cm3.LogicAtom.setRemote() (dex_method_idx=64) 1
    DEX CODE:
      0x0000: return-void
    OatMethodOffsets (offset=0x0000461c)
      code_offset: 0x00006571 
      gc_map: (offset=0x00004842)
    OatQuickMethodHeader (offset=0x00006558)
      mapping_table: (offset=0x000050dc)
      vmap_table: (offset=0x000055db)
      
    QuickMethodFrameInfo
      frame_size_in_bytes: 0
      core_spill_mask: 0x00000000 
      fp_spill_mask: 0x00000000 
    CODE: (code_offset=0x00006571 size_offset=0x0000656c size=4)...
      0x00006570: 4770    	bx      lr
      0x00006572: 0000    	lsls    r0, r0, #0
  7: java.lang.String com.android.cm3.LogicAtom.testName() (dex_method_idx=65) 1
    DEX CODE:
      0x0000: new-instance v0, java.lang.String // type@39
      0x0002: const-string v1, "Logic" // string@84
      0x0004: invoke-direct {v0, v1}, void java.lang.String.<init>(java.lang.String) // method@121
      0x0007: return-object v0
    OatMethodOffsets (offset=0x00004624)
      code_offset: 0x00008cf9 
      gc_map: (offset=0x00004ea2)
    OatQuickMethodHeader (offset=0x00008ce0)
      mapping_table: (offset=0x00005492)
      vmap_table: (offset=0x0000566a)
      v0/r5, v65534/r6, v1/r7, v65535/r15
    QuickMethodFrameInfo
      frame_size_in_bytes: 48
      core_spill_mask: 0x000080e0 (r5, r6, r7, r15)
      fp_spill_mask: 0x00000000 
    CODE: (code_offset=0x00008cf9 size_offset=0x00008cf4 size=104)...
      0x00008cf8: f5bd5c00	subs    r12, sp, #8192
      0x00008cfc: f8dcc000	ldr.w   r12, [r12, #0]
      suspend point dex PC: 0x0000
      GC map objects:  v2 ([sp + #52])
      0x00008d00: e92d40e0	push    {r5, r6, r7, lr}
      0x00008d04: b088    	sub     sp, sp, #32
      0x00008d06: 1c06    	mov     r6, r0
      0x00008d08: 9000    	str     r0, [sp, #0]
      0x00008d0a: 910d    	str     r1, [sp, #52]
      0x00008d0c: f8d9e12c	ldr.w   lr, [r9, #300]  ; pAllocObjectInitialized
      0x00008d10: 1c31    	mov     r1, r6
      0x00008d12: f6450070	movw    r0, #22640
      0x00008d16: f6c6708b	movt    r0, #28555
      0x00008d1a: 47f0    	blx     lr
      suspend point dex PC: 0x0000
      GC map objects:  v2 ([sp + #52])
      0x00008d1c: 1c05    	mov     r5, r0
      0x00008d1e: 6970    	ldr     r0, [r6, #20]
      0x00008d20: f8d0015c	ldr.w   r0, [r0, #348]
      0x00008d24: b190    	cbz     r0, +36 (0x00008d4c)
      0x00008d26: 1c07    	mov     r7, r0
      0x00008d28: f6457e79	movw    lr, #24441
      0x00008d2c: f2c71eef	movt    lr, #29167
      0x00008d30: f24d7048	movw    r0, #55112
      0x00008d34: f6c67090	movt    r0, #28560
      0x00008d38: 1c29    	mov     r1, r5
      0x00008d3a: 1c3a    	mov     r2, r7
      0x00008d3c: 47f0    	blx     lr
      suspend point dex PC: 0x0004
      GC map objects:  v0 (r5), v1 (r7), v2 ([sp + #52])
      0x00008d3e: 3c01    	subs    r4, #1
      0x00008d40: f000800a	beq.w   +20 (0x00008d58)
      0x00008d44: 1c28    	mov     r0, r5
      0x00008d46: b008    	add     sp, sp, #32
      0x00008d48: e8bd80e0	pop     {r5, r6, r7, pc}
      0x00008d4c: f8d9e150	ldr.w   lr, [r9, #336]  ; pResolveString
      0x00008d50: 1c30    	mov     r0, r6
      0x00008d52: 2154    	movs    r1, #84
      0x00008d54: 47f0    	blx     lr
      suspend point dex PC: 0x0002
      GC map objects:  v0 (r5), v2 ([sp + #52])
      0x00008d56: e7e6    	b       -52 (0x00008d26)
      0x00008d58: f8d9e230	ldr.w   lr, [r9, #560]  ; pTestSuspend
      0x00008d5c: 47f0    	blx     lr
      suspend point dex PC: 0x0007
      GC map objects:  v0 (r5)
      0x00008d5e: e7f1    	b       -30 (0x00008d44)
10: Lcom/android/cm3/LoopAtom; (offset=0x0000462c) (type_idx=19) (StatusInitialized) (OatClassAllCompiled)
  0: void com.android.cm3.LoopAtom.<init>() (dex_method_idx=66) 65537
    DEX CODE:
      0x0000: invoke-direct {v1}, void java.lang.Object.<init>() // method@120
      0x0003: const/16 v0, #+12
      0x0005: iput v0, v1, I com.android.cm3.LoopAtom.dummy // field@28
      0x0007: const/16 v0, #+64
      0x0009: iput v0, v1, I com.android.cm3.LoopAtom.FIBCOUNT // field@27
      0x000b: return-void
    OatMethodOffsets (offset=0x00004630)
      code_offset: 0x00008d79 
      gc_map: (offset=0x00004eb0)
    OatQuickMethodHeader (offset=0x00008d60)
      mapping_table: (offset=0x0000549e)
      vmap_table: (offset=0x00005645)
      v1/r5, v65534/r6, v65535/r15
    QuickMethodFrameInfo
      frame_size_in_bytes: 32
      core_spill_mask: 0x00008060 (r5, r6, r15)
      fp_spill_mask: 0x00000000 
    CODE: (code_offset=0x00008d79 size_offset=0x00008d74 size=72)...
      0x00008d78: f5bd5c00	subs    r12, sp, #8192
      0x00008d7c: f8dcc000	ldr.w   r12, [r12, #0]
      suspend point dex PC: 0x0000
      GC map objects:  v1 (r5)
      0x00008d80: e92d4060	push    {r5, r6, lr}
      0x00008d84: b085    	sub     sp, sp, #20
      0x00008d86: 1c06    	mov     r6, r0
      0x00008d88: 9000    	str     r0, [sp, #0]
      0x00008d8a: 1c0d    	mov     r5, r1
      0x00008d8c: f24b0e71	movw    lr, #45169
      0x00008d90: f2c71ee7	movt    lr, #29159
      0x00008d94: f24d3060	movw    r0, #54112
      0x00008d98: f6c6708c	movt    r0, #28556
      0x00008d9c: 1c29    	mov     r1, r5
      0x00008d9e: 47f0    	blx     lr
      suspend point dex PC: 0x0000
      GC map objects:  v1 (r5)
      0x00008da0: 220c    	movs    r2, #12
      0x00008da2: 612a    	str     r2, [r5, #16]
      0x00008da4: 2240    	movs    r2, #64
      0x00008da6: 9203    	str     r2, [sp, #12]
      0x00008da8: 60ea    	str     r2, [r5, #12]
      0x00008daa: 3c01    	subs    r4, #1
      0x00008dac: f0008003	beq.w   +6 (0x00008db6)
      0x00008db0: b005    	add     sp, sp, #20
      0x00008db2: e8bd8060	pop     {r5, r6, pc}
      0x00008db6: f8d9e230	ldr.w   lr, [r9, #560]  ; pTestSuspend
      0x00008dba: 47f0    	blx     lr
      suspend point dex PC: 0x000b
      0x00008dbc: e7f8    	b       -16 (0x00008db0)
      0x00008dbe: 0000    	lsls    r0, r0, #0
  1: int com.android.cm3.LoopAtom.cleanUp() (dex_method_idx=67) 1
    DEX CODE:
      0x0000: const/4 v0, #+0
      0x0001: return v0
    OatMethodOffsets (offset=0x00004638)
      code_offset: 0x00007ea1 
      gc_map: (offset=0x00004842)
    OatQuickMethodHeader (offset=0x00007e88)
      mapping_table: (offset=0x000050dc)
      vmap_table: (offset=0x000055db)
      
    QuickMethodFrameInfo
      frame_size_in_bytes: 0
      core_spill_mask: 0x00000000 
      fp_spill_mask: 0x00000000 
    CODE: (code_offset=0x00007ea1 size_offset=0x00007e9c size=4)...
      0x00007ea0: 2000    	movs    r0, #0
      0x00007ea2: 4770    	bx      lr
  2: int com.android.cm3.LoopAtom.defaultMagnification() (dex_method_idx=68) 1
    DEX CODE:
      0x0000: const/16 v0, #+2692
      0x0002: return v0
    OatMethodOffsets (offset=0x00004640)
      code_offset: 0x00008dd9 
      gc_map: (offset=0x00004842)
    OatQuickMethodHeader (offset=0x00008dc0)
      mapping_table: (offset=0x000050dc)
      vmap_table: (offset=0x000055db)
      
    QuickMethodFrameInfo
      frame_size_in_bytes: 0
      core_spill_mask: 0x00000000 
      fp_spill_mask: 0x00000000 
    CODE: (code_offset=0x00008dd9 size_offset=0x00008dd4 size=8)...
      0x00008dd8: f6402084	movw    r0, #2692
      0x00008ddc: 4770    	bx      lr
      0x00008dde: 0000    	lsls    r0, r0, #0
  3: int com.android.cm3.LoopAtom.execute() (dex_method_idx=69) 1
    DEX CODE:
      0x0000: const/4 v11, #+0
      0x0001: const/4 v10, #+1
      0x0002: iget-object v7, v12, [I com.android.cm3.LoopAtom.fibs // field@29
      0x0004: aput v10, v7, v11
      0x0006: const/4 v0, #+1
      0x0007: iget v7, v12, I com.android.cm3.LoopAtom.FIBCOUNT // field@27
      0x0009: if-lt v0, v7, +18
      0x000b: const/4 v3, #+0
      0x000c: const/4 v5, #+0
      0x000d: const/4 v2, #+0
      0x000e: iget v7, v12, I com.android.cm3.LoopAtom.FIBCOUNT // field@27
      0x0010: if-lt v2, v7, +25
      0x0012: iput v3, v12, I com.android.cm3.LoopAtom.sum1 // field@30
      0x0014: iput v5, v12, I com.android.cm3.LoopAtom.sum2 // field@31
      0x0016: iget-object v7, v12, [I com.android.cm3.LoopAtom.fibs // field@29
      0x0018: aget v7, v7, v11
      0x001a: return v7
      0x001b: iget-object v7, v12, [I com.android.cm3.LoopAtom.fibs // field@29
      0x001d: iget-object v8, v12, [I com.android.cm3.LoopAtom.fibs // field@29
      0x001f: sub-int v9, v0, v10
      0x0021: aget v8, v8, v9
      0x0023: add-int/2addr v8, v0
      0x0024: aput v8, v7, v0
      0x0026: add-int/lit8 v0, v0, #+1
      0x0028: goto -33
      0x0029: const/4 v4, #+1
      0x002a: iget v7, v12, I com.android.cm3.LoopAtom.FIBCOUNT // field@27
      0x002c: if-lt v4, v7, +5
      0x002e: add-int/lit8 v2, v2, #+1
      0x0030: goto -34
      0x0031: iget v7, v12, I com.android.cm3.LoopAtom.FIBCOUNT // field@27
      0x0033: iget v8, v12, I com.android.cm3.LoopAtom.dummy // field@28
      0x0035: add-int v6, v7, v8
      0x0037: add-int/2addr v3, v6
      0x0038: add-int/lit8 v5, v5, #+2
      0x003a: iget-object v7, v12, [I com.android.cm3.LoopAtom.fibs // field@29
      0x003c: sub-int v8, v4, v10
      0x003e: aget v7, v7, v8
      0x0040: iget-object v8, v12, [I com.android.cm3.LoopAtom.fibs // field@29
      0x0042: aget v8, v8, v4
      0x0044: if-ge v7, v8, +22
      0x0046: iget-object v7, v12, [I com.android.cm3.LoopAtom.fibs // field@29
      0x0048: sub-int v8, v4, v10
      0x004a: aget v1, v7, v8
      0x004c: iget-object v7, v12, [I com.android.cm3.LoopAtom.fibs // field@29
      0x004e: sub-int v8, v4, v10
      0x0050: iget-object v9, v12, [I com.android.cm3.LoopAtom.fibs // field@29
      0x0052: aget v9, v9, v4
      0x0054: aput v9, v7, v8
      0x0056: iget-object v7, v12, [I com.android.cm3.LoopAtom.fibs // field@29
      0x0058: aput v1, v7, v4
      0x005a: add-int/lit8 v4, v4, #+1
      0x005c: goto -50
    OatMethodOffsets (offset=0x00004648)
      code_offset: 0x00008df9 
      gc_map: (offset=0x00004eba)
    OatQuickMethodHeader (offset=0x00008de0)
      mapping_table: (offset=0x000054a6)
      vmap_table: (offset=0x0000567b)
      v0/r5, v8/r6, v12/r7, v7/r8, v4/r10, v2/r11, v65535/r15
    QuickMethodFrameInfo
      frame_size_in_bytes: 96
      core_spill_mask: 0x00008de0 (r5, r6, r7, r8, r10, r11, r15)
      fp_spill_mask: 0x00000000 
    CODE: (code_offset=0x00008df9 size_offset=0x00008df4 size=512)...
      0x00008df8: e92d4de0	push    {r5, r6, r7, r8, r10, r11, lr}
      0x00008dfc: b091    	sub     sp, sp, #68
      0x00008dfe: 9000    	str     r0, [sp, #0]
      0x00008e00: 1c0f    	mov     r7, r1
      0x00008e02: 2200    	movs    r2, #0
      0x00008e04: 920f    	str     r2, [sp, #60]
      0x00008e06: f8d78008	ldr.w   r8, [r7, #8]
      0x00008e0a: 2301    	movs    r3, #1
      0x00008e0c: 930e    	str     r3, [sp, #56]
      0x00008e0e: f8d8c008	ldr.w   r12, [r8, #8]
      suspend point dex PC: 0x0004
      GC map objects:  v7 (r8), v12 (r7)
      0x00008e12: f1bc0f00	cmp.w   r12, #0
      0x00008e16: f24080ae	bls.w   +348 (0x00008f76)
      0x00008e1a: f8c8300c	str.w   r3, [r8, #12]
      suspend point dex PC: 0x0004
      GC map objects:  v7 (r8), v12 (r7)
      0x00008e1e: 2501    	movs    r5, #1
      0x00008e20: f8d7800c	ldr.w   r8, [r7, #12]
      0x00008e24: 4545    	cmp     r5, r8
      0x00008e26: f2c0808a	blt.w   +276 (0x00008f3e)
      0x00008e2a: 2000    	movs    r0, #0
      0x00008e2c: 9007    	str     r0, [sp, #28]
      0x00008e2e: 2100    	movs    r1, #0
      0x00008e30: 9109    	str     r1, [sp, #36]
      0x00008e32: f04f0b00	mov.w   r11, #0
      0x00008e36: f8d7800c	ldr.w   r8, [r7, #12]
      0x00008e3a: 45c3    	cmp     r11, r8
      0x00008e3c: f2c08015	blt.w   +42 (0x00008e6a)
      0x00008e40: 9a07    	ldr     r2, [sp, #28]
      0x00008e42: 9b09    	ldr     r3, [sp, #36]
      0x00008e44: 617a    	str     r2, [r7, #20]
      0x00008e46: 61bb    	str     r3, [r7, #24]
      0x00008e48: f8d78008	ldr.w   r8, [r7, #8]
      0x00008e4c: f8d8c008	ldr.w   r12, [r8, #8]
      suspend point dex PC: 0x0018
      GC map objects:  v7 (r8), v12 (r7)
      0x00008e50: f1bc0f00	cmp.w   r12, #0
      0x00008e54: f2408094	bls.w   +296 (0x00008f80)
      0x00008e58: f8d8800c	ldr.w   r8, [r8, #12]
      suspend point dex PC: 0x0018
      GC map objects:  v7 (r8), v12 (r7)
      0x00008e5c: 3c01    	subs    r4, #1
      0x00008e5e: f0008094	beq.w   +296 (0x00008f8a)
      0x00008e62: 4640    	mov     r0, r8
      0x00008e64: b011    	add     sp, sp, #68
      0x00008e66: e8bd8de0	pop     {r5, r6, r7, r8, r10, r11, pc}
      0x00008e6a: f04f0a01	mov.w   r10, #1
      0x00008e6e: f8d7800c	ldr.w   r8, [r7, #12]
      0x00008e72: 45c2    	cmp     r10, r8
      0x00008e74: f2c08006	blt.w   +12 (0x00008e84)
      0x00008e78: f11b0b01	adds    r11, r11, #1
      0x00008e7c: 3c01    	subs    r4, #1
      0x00008e7e: f47fafda	bne.w   -76 (0x00008e36)
      0x00008e82: e086    	b       +268 (0x00008f92)
      0x00008e84: f8d7800c	ldr.w   r8, [r7, #12]
      0x00008e88: 693e    	ldr     r6, [r7, #16]
      0x00008e8a: 9907    	ldr     r1, [sp, #28]
      0x00008e8c: eb180006	adds.w  r0, r8, r6
      0x00008e90: 900a    	str     r0, [sp, #40]
      0x00008e92: 9a09    	ldr     r2, [sp, #36]
      0x00008e94: 1809    	adds    r1, r1, r0
      0x00008e96: 9107    	str     r1, [sp, #28]
      0x00008e98: f8d78008	ldr.w   r8, [r7, #8]
      0x00008e9c: 1c92    	adds    r2, r2, #2
      0x00008e9e: 9209    	str     r2, [sp, #36]
      0x00008ea0: f11a36ff	adds    r6, r10, #-1
      0x00008ea4: f8d83008	ldr.w   r3, [r8, #8]
      suspend point dex PC: 0x003e
      GC map objects:  v7 (r8), v12 (r7)
      0x00008ea8: f1180c0c	adds    r12, r8, #12
      0x00008eac: 429e    	cmp     r6, r3
      0x00008eae: f0808074	bcs.w   +232 (0x00008f9a)
      0x00008eb2: f85c8026	ldr.w   r8, [r12, r6, lsl #2]
      suspend point dex PC: 0x003e
      GC map objects:  v7 (r8), v12 (r7)
      0x00008eb6: 68be    	ldr     r6, [r7, #8]
      0x00008eb8: 68b3    	ldr     r3, [r6, #8]
      suspend point dex PC: 0x0042
      GC map objects:  v8 (r6), v12 (r7)
      0x00008eba: f1160c0c	adds    r12, r6, #12
      0x00008ebe: 459a    	cmp     r10, r3
      0x00008ec0: f0808070	bcs.w   +224 (0x00008fa4)
      0x00008ec4: f85c602a	ldr.w   r6, [r12, r10, lsl #2]
      suspend point dex PC: 0x0042
      GC map objects:  v8 (r6), v12 (r7)
      0x00008ec8: 45b0    	cmp     r8, r6
      0x00008eca: f2808032	bge.w   +100 (0x00008f32)
      0x00008ece: f8d78008	ldr.w   r8, [r7, #8]
      0x00008ed2: f11a36ff	adds    r6, r10, #-1
      0x00008ed6: f8d80008	ldr.w   r0, [r8, #8]
      suspend point dex PC: 0x004a
      GC map objects:  v7 (r8), v12 (r7)
      0x00008eda: f118010c	adds    r1, r8, #12
      0x00008ede: 4286    	cmp     r6, r0
      0x00008ee0: f0808065	bcs.w   +202 (0x00008fae)
      0x00008ee4: f8512026	ldr.w   r2, [r1, r6, lsl #2]
      suspend point dex PC: 0x004a
      GC map objects:  v7 (r8), v12 (r7)
      0x00008ee8: f8d78008	ldr.w   r8, [r7, #8]
      0x00008eec: 68bb    	ldr     r3, [r7, #8]
      0x00008eee: 9205    	str     r2, [sp, #20]
      0x00008ef0: f11a36ff	adds    r6, r10, #-1
      0x00008ef4: 930d    	str     r3, [sp, #52]
      0x00008ef6: f8d3c008	ldr.w   r12, [r3, #8]
      suspend point dex PC: 0x0052
      GC map objects:  v7 (r8), v9 ([sp + #52]), v12 (r7)
      0x00008efa: f113000c	adds    r0, r3, #12
      0x00008efe: 45e2    	cmp     r10, r12
      0x00008f00: f080805a	bcs.w   +180 (0x00008fb8)
      0x00008f04: f850302a	ldr.w   r3, [r0, r10, lsl #2]
      suspend point dex PC: 0x0052
      GC map objects:  v7 (r8), v9 ([sp + #52]), v12 (r7)
      0x00008f08: 930d    	str     r3, [sp, #52]
      0x00008f0a: f8d8c008	ldr.w   r12, [r8, #8]
      suspend point dex PC: 0x0054
      GC map objects:  v7 (r8), v12 (r7)
      0x00008f0e: f118010c	adds    r1, r8, #12
      0x00008f12: 4566    	cmp     r6, r12
      0x00008f14: f0808055	bcs.w   +170 (0x00008fc2)
      0x00008f18: f8413026	str.w   r3, [r1, r6, lsl #2]
      suspend point dex PC: 0x0054
      GC map objects:  v7 (r8), v12 (r7)
      0x00008f1c: f8d78008	ldr.w   r8, [r7, #8]
      0x00008f20: f8d81008	ldr.w   r1, [r8, #8]
      suspend point dex PC: 0x0058
      GC map objects:  v7 (r8), v12 (r7)
      0x00008f24: f118000c	adds    r0, r8, #12
      0x00008f28: 458a    	cmp     r10, r1
      0x00008f2a: f080804f	bcs.w   +158 (0x00008fcc)
      0x00008f2e: f840202a	str.w   r2, [r0, r10, lsl #2]
      suspend point dex PC: 0x0058
      GC map objects:  v7 (r8), v12 (r7)
      0x00008f32: f11a0a01	adds    r10, r10, #1
      0x00008f36: 3c01    	subs    r4, #1
      0x00008f38: f47faf99	bne.w   -206 (0x00008e6e)
      0x00008f3c: e04a    	b       +148 (0x00008fd4)
      0x00008f3e: f8d78008	ldr.w   r8, [r7, #8]
      0x00008f42: 68be    	ldr     r6, [r7, #8]
      0x00008f44: 1e6a    	subs    r2, r5, #1
      0x00008f46: 920d    	str     r2, [sp, #52]
      0x00008f48: 68b3    	ldr     r3, [r6, #8]
      suspend point dex PC: 0x0021
      GC map objects:  v7 (r8), v8 (r6), v12 (r7)
      0x00008f4a: f1160c0c	adds    r12, r6, #12
      0x00008f4e: 429a    	cmp     r2, r3
      0x00008f50: f0808044	bcs.w   +136 (0x00008fdc)
      0x00008f54: f85c6022	ldr.w   r6, [r12, r2, lsl #2]
      suspend point dex PC: 0x0021
      GC map objects:  v7 (r8), v8 (r6), v12 (r7)
      0x00008f58: 1976    	adds    r6, r6, r5
      0x00008f5a: f8d81008	ldr.w   r1, [r8, #8]
      suspend point dex PC: 0x0024
      GC map objects:  v7 (r8), v12 (r7)
      0x00008f5e: f118000c	adds    r0, r8, #12
      0x00008f62: 428d    	cmp     r5, r1
      0x00008f64: f080803f	bcs.w   +126 (0x00008fe6)
      0x00008f68: f8406025	str.w   r6, [r0, r5, lsl #2]
      suspend point dex PC: 0x0024
      GC map objects:  v7 (r8), v12 (r7)
      0x00008f6c: 1c6d    	adds    r5, r5, #1
      0x00008f6e: 3c01    	subs    r4, #1
      0x00008f70: f47faf56	bne.w   -340 (0x00008e20)
      0x00008f74: e03b    	b       +118 (0x00008fee)
      0x00008f76: 4661    	mov     r1, r12
      0x00008f78: 2000    	movs    r0, #0
      0x00008f7a: f8d9e238	ldr.w   lr, [r9, #568]  ; pThrowArrayBounds
      0x00008f7e: 47f0    	blx     lr
      suspend point dex PC: 0x0004
      GC map objects:  v7 (r8), v12 (r7)
      0x00008f80: 4661    	mov     r1, r12
      0x00008f82: 2000    	movs    r0, #0
      0x00008f84: f8d9e238	ldr.w   lr, [r9, #568]  ; pThrowArrayBounds
      0x00008f88: 47f0    	blx     lr
      suspend point dex PC: 0x0018
      GC map objects:  v7 (r8), v12 (r7)
      0x00008f8a: f8d9e230	ldr.w   lr, [r9, #560]  ; pTestSuspend
      0x00008f8e: 47f0    	blx     lr
      suspend point dex PC: 0x001a
      0x00008f90: e767    	b       -306 (0x00008e62)
      0x00008f92: f8d9e230	ldr.w   lr, [r9, #560]  ; pTestSuspend
      0x00008f96: 47f0    	blx     lr
      suspend point dex PC: 0x0030
      GC map objects:  v12 (r7)
      0x00008f98: e74d    	b       -358 (0x00008e36)
      0x00008f9a: f8d9e238	ldr.w   lr, [r9, #568]  ; pThrowArrayBounds
      0x00008f9e: 1c30    	mov     r0, r6
      0x00008fa0: 1c19    	mov     r1, r3
      0x00008fa2: 47f0    	blx     lr
      suspend point dex PC: 0x003e
      GC map objects:  v7 (r8), v12 (r7)
      0x00008fa4: f8d9e238	ldr.w   lr, [r9, #568]  ; pThrowArrayBounds
      0x00008fa8: 4650    	mov     r0, r10
      0x00008faa: 1c19    	mov     r1, r3
      0x00008fac: 47f0    	blx     lr
      suspend point dex PC: 0x0042
      GC map objects:  v8 (r6), v12 (r7)
      0x00008fae: f8d9e238	ldr.w   lr, [r9, #568]  ; pThrowArrayBounds
      0x00008fb2: 1c01    	mov     r1, r0
      0x00008fb4: 1c30    	mov     r0, r6
      0x00008fb6: 47f0    	blx     lr
      suspend point dex PC: 0x004a
      GC map objects:  v7 (r8), v12 (r7)
      0x00008fb8: f8d9e238	ldr.w   lr, [r9, #568]  ; pThrowArrayBounds
      0x00008fbc: 4650    	mov     r0, r10
      0x00008fbe: 4661    	mov     r1, r12
      0x00008fc0: 47f0    	blx     lr
      suspend point dex PC: 0x0052
      GC map objects:  v7 (r8), v9 ([sp + #52]), v12 (r7)
      0x00008fc2: f8d9e238	ldr.w   lr, [r9, #568]  ; pThrowArrayBounds
      0x00008fc6: 1c30    	mov     r0, r6
      0x00008fc8: 4661    	mov     r1, r12
      0x00008fca: 47f0    	blx     lr
      suspend point dex PC: 0x0054
      GC map objects:  v7 (r8), v12 (r7)
      0x00008fcc: f8d9e238	ldr.w   lr, [r9, #568]  ; pThrowArrayBounds
      0x00008fd0: 4650    	mov     r0, r10
      0x00008fd2: 47f0    	blx     lr
      suspend point dex PC: 0x0058
      GC map objects:  v7 (r8), v12 (r7)
      0x00008fd4: f8d9e230	ldr.w   lr, [r9, #560]  ; pTestSuspend
      0x00008fd8: 47f0    	blx     lr
      suspend point dex PC: 0x005c
      GC map objects:  v12 (r7)
      0x00008fda: e748    	b       -368 (0x00008e6e)
      0x00008fdc: f8d9e238	ldr.w   lr, [r9, #568]  ; pThrowArrayBounds
      0x00008fe0: 1c10    	mov     r0, r2
      0x00008fe2: 1c19    	mov     r1, r3
      0x00008fe4: 47f0    	blx     lr
      suspend point dex PC: 0x0021
      GC map objects:  v7 (r8), v8 (r6), v12 (r7)
      0x00008fe6: f8d9e238	ldr.w   lr, [r9, #568]  ; pThrowArrayBounds
      0x00008fea: 1c28    	mov     r0, r5
      0x00008fec: 47f0    	blx     lr
      suspend point dex PC: 0x0024
      GC map objects:  v7 (r8), v12 (r7)
      0x00008fee: f8d9e230	ldr.w   lr, [r9, #560]  ; pTestSuspend
      0x00008ff2: 47f0    	blx     lr
      suspend point dex PC: 0x0028
      GC map objects:  v7 (r8), v12 (r7)
      0x00008ff4: e714    	b       -472 (0x00008e20)
      0x00008ff6: 0000    	lsls    r0, r0, #0
  4: boolean com.android.cm3.LoopAtom.initialize(int) (dex_method_idx=70) 1
    DEX CODE:
      0x0000: if-eqz v2, +4
      0x0002: iput v2, v1, I com.android.cm3.LoopAtom.FIBCOUNT // field@27
      0x0004: iget v0, v1, I com.android.cm3.LoopAtom.FIBCOUNT // field@27
      0x0006: new-array v0, v0, int[] // type@49
      0x0008: iput-object v0, v1, [I com.android.cm3.LoopAtom.fibs // field@29
      0x000a: const/4 v0, #+1
      0x000b: return v0
    OatMethodOffsets (offset=0x00004650)
      code_offset: 0x00009011 
      gc_map: (offset=0x00004f46)
    OatQuickMethodHeader (offset=0x00008ff8)
      mapping_table: (offset=0x000054ec)
      vmap_table: (offset=0x00005683)
      v1/r5, v0/r6, v2/r7, v65534/r8, v65535/r15
    QuickMethodFrameInfo
      frame_size_in_bytes: 32
      core_spill_mask: 0x000081e0 (r5, r6, r7, r8, r15)
      fp_spill_mask: 0x00000000 
    CODE: (code_offset=0x00009011 size_offset=0x0000900c size=76)...
      0x00009010: e92d41e0	push    {r5, r6, r7, r8, lr}
      0x00009014: b083    	sub     sp, sp, #12
      0x00009016: 4680    	mov     r8, r0
      0x00009018: 9000    	str     r0, [sp, #0]
      0x0000901a: 1c0d    	mov     r5, r1
      0x0000901c: 1c17    	mov     r7, r2
      0x0000901e: b107    	cbz     r7, +0 (0x00009022)
      0x00009020: 60ef    	str     r7, [r5, #12]
      0x00009022: 68ee    	ldr     r6, [r5, #12]
      0x00009024: f8d9e11c	ldr.w   lr, [r9, #284]  ; pAllocArrayResolved
      0x00009028: 1c32    	mov     r2, r6
      0x0000902a: 4641    	mov     r1, r8
      0x0000902c: f64840e8	movw    r0, #36072
      0x00009030: f6c670a8	movt    r0, #28584
      0x00009034: 47f0    	blx     lr
      suspend point dex PC: 0x0006
      GC map objects:  v1 (r5)
      0x00009036: 1c06    	mov     r6, r0
      0x00009038: 60ae    	str     r6, [r5, #8]
      0x0000903a: b11e    	cbz     r6, +6 (0x00009044)
      0x0000903c: f8d92078	ldr.w   r2, [r9, #120]  ; card_table
      0x00009040: 09eb    	lsrs    r3, r5, #7
      0x00009042: 54d2    	strb    r2, [r2, r3]
      0x00009044: 2601    	movs    r6, #1
      0x00009046: 3c01    	subs    r4, #1
      0x00009048: f0008004	beq.w   +8 (0x00009054)
      0x0000904c: 1c30    	mov     r0, r6
      0x0000904e: b003    	add     sp, sp, #12
      0x00009050: e8bd81e0	pop     {r5, r6, r7, r8, pc}
      0x00009054: f8d9e230	ldr.w   lr, [r9, #560]  ; pTestSuspend
      0x00009058: 47f0    	blx     lr
      suspend point dex PC: 0x000b
      0x0000905a: e7f7    	b       -18 (0x0000904c)
  5: void com.android.cm3.LoopAtom.setLocal() (dex_method_idx=71) 1
    DEX CODE:
      0x0000: return-void
    OatMethodOffsets (offset=0x00004658)
      code_offset: 0x00006571 
      gc_map: (offset=0x00004842)
    OatQuickMethodHeader (offset=0x00006558)
      mapping_table: (offset=0x000050dc)
      vmap_table: (offset=0x000055db)
      
    QuickMethodFrameInfo
      frame_size_in_bytes: 0
      core_spill_mask: 0x00000000 
      fp_spill_mask: 0x00000000 
    CODE: (code_offset=0x00006571 size_offset=0x0000656c size=4)...
      0x00006570: 4770    	bx      lr
      0x00006572: 0000    	lsls    r0, r0, #0
  6: void com.android.cm3.LoopAtom.setRemote() (dex_method_idx=72) 1
    DEX CODE:
      0x0000: return-void
    OatMethodOffsets (offset=0x00004660)
      code_offset: 0x00006571 
      gc_map: (offset=0x00004842)
    OatQuickMethodHeader (offset=0x00006558)
      mapping_table: (offset=0x000050dc)
      vmap_table: (offset=0x000055db)
      
    QuickMethodFrameInfo
      frame_size_in_bytes: 0
      core_spill_mask: 0x00000000 
      fp_spill_mask: 0x00000000 
    CODE: (code_offset=0x00006571 size_offset=0x0000656c size=4)...
      0x00006570: 4770    	bx      lr
      0x00006572: 0000    	lsls    r0, r0, #0
  7: java.lang.String com.android.cm3.LoopAtom.testName() (dex_method_idx=73) 1
    DEX CODE:
      0x0000: new-instance v0, java.lang.String // type@39
      0x0002: const-string v1, "Loop" // string@87
      0x0004: invoke-direct {v0, v1}, void java.lang.String.<init>(java.lang.String) // method@121
      0x0007: return-object v0
    OatMethodOffsets (offset=0x00004668)
      code_offset: 0x00009079 
      gc_map: (offset=0x00004ea2)
    OatQuickMethodHeader (offset=0x00009060)
      mapping_table: (offset=0x00005492)
      vmap_table: (offset=0x0000566a)
      v0/r5, v65534/r6, v1/r7, v65535/r15
    QuickMethodFrameInfo
      frame_size_in_bytes: 48
      core_spill_mask: 0x000080e0 (r5, r6, r7, r15)
      fp_spill_mask: 0x00000000 
    CODE: (code_offset=0x00009079 size_offset=0x00009074 size=104)...
      0x00009078: f5bd5c00	subs    r12, sp, #8192
      0x0000907c: f8dcc000	ldr.w   r12, [r12, #0]
      suspend point dex PC: 0x0000
      GC map objects:  v2 ([sp + #52])
      0x00009080: e92d40e0	push    {r5, r6, r7, lr}
      0x00009084: b088    	sub     sp, sp, #32
      0x00009086: 1c06    	mov     r6, r0
      0x00009088: 9000    	str     r0, [sp, #0]
      0x0000908a: 910d    	str     r1, [sp, #52]
      0x0000908c: f8d9e12c	ldr.w   lr, [r9, #300]  ; pAllocObjectInitialized
      0x00009090: 1c31    	mov     r1, r6
      0x00009092: f6450070	movw    r0, #22640
      0x00009096: f6c6708b	movt    r0, #28555
      0x0000909a: 47f0    	blx     lr
      suspend point dex PC: 0x0000
      GC map objects:  v2 ([sp + #52])
      0x0000909c: 1c05    	mov     r5, r0
      0x0000909e: 6970    	ldr     r0, [r6, #20]
      0x000090a0: f8d00168	ldr.w   r0, [r0, #360]
      0x000090a4: b190    	cbz     r0, +36 (0x000090cc)
      0x000090a6: 1c07    	mov     r7, r0
      0x000090a8: f6457e79	movw    lr, #24441
      0x000090ac: f2c71eef	movt    lr, #29167
      0x000090b0: f24d7048	movw    r0, #55112
      0x000090b4: f6c67090	movt    r0, #28560
      0x000090b8: 1c29    	mov     r1, r5
      0x000090ba: 1c3a    	mov     r2, r7
      0x000090bc: 47f0    	blx     lr
      suspend point dex PC: 0x0004
      GC map objects:  v0 (r5), v1 (r7), v2 ([sp + #52])
      0x000090be: 3c01    	subs    r4, #1
      0x000090c0: f000800a	beq.w   +20 (0x000090d8)
      0x000090c4: 1c28    	mov     r0, r5
      0x000090c6: b008    	add     sp, sp, #32
      0x000090c8: e8bd80e0	pop     {r5, r6, r7, pc}
      0x000090cc: f8d9e150	ldr.w   lr, [r9, #336]  ; pResolveString
      0x000090d0: 1c30    	mov     r0, r6
      0x000090d2: 2157    	movs    r1, #87
      0x000090d4: 47f0    	blx     lr
      suspend point dex PC: 0x0002
      GC map objects:  v0 (r5), v2 ([sp + #52])
      0x000090d6: e7e6    	b       -52 (0x000090a6)
      0x000090d8: f8d9e230	ldr.w   lr, [r9, #560]  ; pTestSuspend
      0x000090dc: 47f0    	blx     lr
      suspend point dex PC: 0x0007
      GC map objects:  v0 (r5)
      0x000090de: e7f1    	b       -30 (0x000090c4)
11: Lcom/android/cm3/MethodAtom; (offset=0x00004670) (type_idx=20) (StatusInitialized) (OatClassAllCompiled)
  0: void com.android.cm3.MethodAtom.<init>() (dex_method_idx=74) 65537
    DEX CODE:
      0x0000: invoke-direct {v1}, void java.lang.Object.<init>() // method@120
      0x0003: const/16 v0, #+100
      0x0005: iput v0, v1, I com.android.cm3.MethodAtom.wIterationCount // field@33
      0x0007: return-void
    OatMethodOffsets (offset=0x00004674)
      code_offset: 0x000090f9 
      gc_map: (offset=0x00004f4e)
    OatQuickMethodHeader (offset=0x000090e0)
      mapping_table: (offset=0x000054f2)
      vmap_table: (offset=0x00005645)
      v1/r5, v65534/r6, v65535/r15
    QuickMethodFrameInfo
      frame_size_in_bytes: 32
      core_spill_mask: 0x00008060 (r5, r6, r15)
      fp_spill_mask: 0x00000000 
    CODE: (code_offset=0x000090f9 size_offset=0x000090f4 size=68)...
      0x000090f8: f5bd5c00	subs    r12, sp, #8192
      0x000090fc: f8dcc000	ldr.w   r12, [r12, #0]
      suspend point dex PC: 0x0000
      GC map objects:  v1 (r5)
      0x00009100: e92d4060	push    {r5, r6, lr}
      0x00009104: b085    	sub     sp, sp, #20
      0x00009106: 1c06    	mov     r6, r0
      0x00009108: 9000    	str     r0, [sp, #0]
      0x0000910a: 1c0d    	mov     r5, r1
      0x0000910c: f24b0e71	movw    lr, #45169
      0x00009110: f2c71ee7	movt    lr, #29159
      0x00009114: f24d3060	movw    r0, #54112
      0x00009118: f6c6708c	movt    r0, #28556
      0x0000911c: 1c29    	mov     r1, r5
      0x0000911e: 47f0    	blx     lr
      suspend point dex PC: 0x0000
      GC map objects:  v1 (r5)
      0x00009120: 2264    	movs    r2, #100
      0x00009122: 9203    	str     r2, [sp, #12]
      0x00009124: 60ea    	str     r2, [r5, #12]
      0x00009126: 3c01    	subs    r4, #1
      0x00009128: f0008003	beq.w   +6 (0x00009132)
      0x0000912c: b005    	add     sp, sp, #20
      0x0000912e: e8bd8060	pop     {r5, r6, pc}
      0x00009132: f8d9e230	ldr.w   lr, [r9, #560]  ; pTestSuspend
      0x00009136: 47f0    	blx     lr
      suspend point dex PC: 0x0007
      0x00009138: e7f8    	b       -16 (0x0000912c)
      0x0000913a: 0000    	lsls    r0, r0, #0
  1: int com.android.cm3.MethodAtom.arithmeticSeries(int) (dex_method_idx=75) 1
    DEX CODE:
      0x0000: if-nez v2, +4
      0x0002: const/4 v0, #+0
      0x0003: return v0
      0x0004: const/4 v0, #+1
      0x0005: sub-int v0, v2, v0
      0x0007: invoke-virtual {v1, v0}, int com.android.cm3.MethodAtom.arithmeticSeries(int) // method@75
      0x000a: move-result v0
      0x000b: add-int/2addr v0, v2
      0x000c: goto -9
    OatMethodOffsets (offset=0x0000467c)
      code_offset: 0x00009159 
      gc_map: (offset=0x00004f58)
    OatQuickMethodHeader (offset=0x00009140)
      mapping_table: (offset=0x000054fa)
      vmap_table: (offset=0x00005689)
      v0/r5, v2/r6, v1/r7, v65534/r8, v65535/r15
    QuickMethodFrameInfo
      frame_size_in_bytes: 48
      core_spill_mask: 0x000081e0 (r5, r6, r7, r8, r15)
      fp_spill_mask: 0x00000000 
    CODE: (code_offset=0x00009159 size_offset=0x00009154 size=76)...
      0x00009158: f5bd5c00	subs    r12, sp, #8192
      0x0000915c: f8dcc000	ldr.w   r12, [r12, #0]
      suspend point dex PC: 0x0000
      GC map objects:  v1 (r7)
      0x00009160: e92d41e0	push    {r5, r6, r7, r8, lr}
      0x00009164: b087    	sub     sp, sp, #28
      0x00009166: 4680    	mov     r8, r0
      0x00009168: 9000    	str     r0, [sp, #0]
      0x0000916a: 1c0f    	mov     r7, r1
      0x0000916c: 1c16    	mov     r6, r2
      0x0000916e: b93e    	cbnz    r6, +14 (0x00009180)
      0x00009170: 2500    	movs    r5, #0
      0x00009172: 3c01    	subs    r4, #1
      0x00009174: f0008011	beq.w   +34 (0x0000919a)
      0x00009178: 1c28    	mov     r0, r5
      0x0000917a: b007    	add     sp, sp, #28
      0x0000917c: e8bd81e0	pop     {r5, r6, r7, r8, pc}
      0x00009180: 2501    	movs    r5, #1
      0x00009182: 1e75    	subs    r5, r6, #1
      0x00009184: 1c39    	mov     r1, r7
      0x00009186: 6808    	ldr     r0, [r1, #0]
      0x00009188: 1c2a    	mov     r2, r5
      0x0000918a: f8d0019c	ldr.w   r0, [r0, #412]
      0x0000918e: f8d0e028	ldr.w   lr, [r0, #40]
      0x00009192: 47f0    	blx     lr
      suspend point dex PC: 0x0007
      GC map objects:  v1 (r7)
      0x00009194: 1c05    	mov     r5, r0
      0x00009196: 19ad    	adds    r5, r5, r6
      0x00009198: e7eb    	b       -42 (0x00009172)
      0x0000919a: f8d9e230	ldr.w   lr, [r9, #560]  ; pTestSuspend
      0x0000919e: 47f0    	blx     lr
      suspend point dex PC: 0x0003
      0x000091a0: e7ea    	b       -44 (0x00009178)
      0x000091a2: 0000    	lsls    r0, r0, #0
  2: int com.android.cm3.MethodAtom.cleanUp() (dex_method_idx=76) 1
    DEX CODE:
      0x0000: const/4 v0, #+0
      0x0001: return v0
    OatMethodOffsets (offset=0x00004684)
      code_offset: 0x00007ea1 
      gc_map: (offset=0x00004842)
    OatQuickMethodHeader (offset=0x00007e88)
      mapping_table: (offset=0x000050dc)
      vmap_table: (offset=0x000055db)
      
    QuickMethodFrameInfo
      frame_size_in_bytes: 0
      core_spill_mask: 0x00000000 
      fp_spill_mask: 0x00000000 
    CODE: (code_offset=0x00007ea1 size_offset=0x00007e9c size=4)...
      0x00007ea0: 2000    	movs    r0, #0
      0x00007ea2: 4770    	bx      lr
  3: int com.android.cm3.MethodAtom.defaultMagnification() (dex_method_idx=77) 1
    DEX CODE:
      0x0000: const/16 v0, #+3728
      0x0002: return v0
    OatMethodOffsets (offset=0x0000468c)
      code_offset: 0x000091c1 
      gc_map: (offset=0x00004842)
    OatQuickMethodHeader (offset=0x000091a8)
      mapping_table: (offset=0x000050dc)
      vmap_table: (offset=0x000055db)
      
    QuickMethodFrameInfo
      frame_size_in_bytes: 0
      core_spill_mask: 0x00000000 
      fp_spill_mask: 0x00000000 
    CODE: (code_offset=0x000091c1 size_offset=0x000091bc size=8)...
      0x000091c0: f44f6069	mov.w   r0, #3728
      0x000091c4: 4770    	bx      lr
      0x000091c6: 0000    	lsls    r0, r0, #0
  4: int com.android.cm3.MethodAtom.execute() (dex_method_idx=78) 1
    DEX CODE:
      0x0000: const/4 v1, #+0
      0x0001: const/4 v0, #+0
      0x0002: iget v4, v5, I com.android.cm3.MethodAtom.wIterationCount // field@33
      0x0004: if-lt v0, v4, +3
      0x0006: return v1
      0x0007: invoke-virtual {v5, v0}, int com.android.cm3.MethodAtom.arithmeticSeries(int) // method@75
      0x000a: move-result v2
      0x000b: invoke-virtual {v5, v0}, int com.android.cm3.MethodAtom.notInlineableSeries(int) // method@80
      0x000e: move-result v3
      0x000f: if-le v2, v3, +6
      0x0011: add-int/2addr v1, v3
      0x0012: add-int/lit8 v0, v0, #+1
      0x0014: goto -18
      0x0015: add-int/2addr v1, v2
      0x0016: goto -4
    OatMethodOffsets (offset=0x00004694)
      code_offset: 0x000091e1 
      gc_map: (offset=0x00004f62)
    OatQuickMethodHeader (offset=0x000091c8)
      mapping_table: (offset=0x00005502)
      vmap_table: (offset=0x0000568f)
      v1/r5, v0/r6, v5/r7, v2/r8, v3/r10, v65534/r11, v65535/r15
    QuickMethodFrameInfo
      frame_size_in_bytes: 64
      core_spill_mask: 0x00008de0 (r5, r6, r7, r8, r10, r11, r15)
      fp_spill_mask: 0x00000000 
    CODE: (code_offset=0x000091e1 size_offset=0x000091dc size=128)...
      0x000091e0: f5bd5c00	subs    r12, sp, #8192
      0x000091e4: f8dcc000	ldr.w   r12, [r12, #0]
      suspend point dex PC: 0x0000
      GC map objects:  v5 (r7)
      0x000091e8: e92d4de0	push    {r5, r6, r7, r8, r10, r11, lr}
      0x000091ec: b089    	sub     sp, sp, #36
      0x000091ee: 4683    	mov     r11, r0
      0x000091f0: 9000    	str     r0, [sp, #0]
      0x000091f2: 1c0f    	mov     r7, r1
      0x000091f4: 2500    	movs    r5, #0
      0x000091f6: 2600    	movs    r6, #0
      0x000091f8: 68fa    	ldr     r2, [r7, #12]
      0x000091fa: 9207    	str     r2, [sp, #28]
      0x000091fc: 4296    	cmp     r6, r2
      0x000091fe: f2c08007	blt.w   +14 (0x00009210)
      0x00009202: 3c01    	subs    r4, #1
      0x00009204: f0008023	beq.w   +70 (0x0000924e)
      0x00009208: 1c28    	mov     r0, r5
      0x0000920a: b009    	add     sp, sp, #36
      0x0000920c: e8bd8de0	pop     {r5, r6, r7, r8, r10, r11, pc}
      0x00009210: 1c39    	mov     r1, r7
      0x00009212: 6808    	ldr     r0, [r1, #0]
      0x00009214: 1c32    	mov     r2, r6
      0x00009216: f8d0019c	ldr.w   r0, [r0, #412]
      0x0000921a: f8d0e028	ldr.w   lr, [r0, #40]
      0x0000921e: 47f0    	blx     lr
      suspend point dex PC: 0x0007
      GC map objects:  v5 (r7)
      0x00009220: 4680    	mov     r8, r0
      0x00009222: 1c39    	mov     r1, r7
      0x00009224: 6808    	ldr     r0, [r1, #0]
      0x00009226: 1c32    	mov     r2, r6
      0x00009228: f8d001b0	ldr.w   r0, [r0, #432]
      0x0000922c: f8d0e028	ldr.w   lr, [r0, #40]
      0x00009230: 47f0    	blx     lr
      suspend point dex PC: 0x000b
      GC map objects:  v5 (r7)
      0x00009232: 4682    	mov     r10, r0
      0x00009234: 45d0    	cmp     r8, r10
      0x00009236: f3408004	ble.w   +8 (0x00009242)
      0x0000923a: eb15050a	adds.w  r5, r5, r10
      0x0000923e: 1c76    	adds    r6, r6, #1
      0x00009240: e7da    	b       -76 (0x000091f8)
      0x00009242: eb150508	adds.w  r5, r5, r8
      0x00009246: 3c01    	subs    r4, #1
      0x00009248: f47faff9	bne.w   -14 (0x0000923e)
      0x0000924c: e003    	b       +6 (0x00009256)
      0x0000924e: f8d9e230	ldr.w   lr, [r9, #560]  ; pTestSuspend
      0x00009252: 47f0    	blx     lr
      suspend point dex PC: 0x0006
      0x00009254: e7d8    	b       -80 (0x00009208)
      0x00009256: f8d9e230	ldr.w   lr, [r9, #560]  ; pTestSuspend
      0x0000925a: 47f0    	blx     lr
      suspend point dex PC: 0x0016
      GC map objects:  v5 (r7)
      0x0000925c: e7ef    	b       -34 (0x0000923e)
      0x0000925e: 0000    	lsls    r0, r0, #0
  5: boolean com.android.cm3.MethodAtom.initialize(int) (dex_method_idx=79) 1
    DEX CODE:
      0x0000: if-eqz v2, +4
      0x0002: iput v2, v1, I com.android.cm3.MethodAtom.wIterationCount // field@33
      0x0004: const/4 v0, #+1
      0x0005: return v0
    OatMethodOffsets (offset=0x0000469c)
      code_offset: 0x00009279 
      gc_map: (offset=0x00004e9c)
    OatQuickMethodHeader (offset=0x00009260)
      mapping_table: (offset=0x0000548e)
      vmap_table: (offset=0x00005677)
      v2/r5, v1/r6, v65535/r15
    QuickMethodFrameInfo
      frame_size_in_bytes: 32
      core_spill_mask: 0x00008060 (r5, r6, r15)
      fp_spill_mask: 0x00000000 
    CODE: (code_offset=0x00009279 size_offset=0x00009274 size=44)...
      0x00009278: e92d4060	push    {r5, r6, lr}
      0x0000927c: b085    	sub     sp, sp, #20
      0x0000927e: 9000    	str     r0, [sp, #0]
      0x00009280: 1c0e    	mov     r6, r1
      0x00009282: 1c15    	mov     r5, r2
      0x00009284: b105    	cbz     r5, +0 (0x00009288)
      0x00009286: 60f5    	str     r5, [r6, #12]
      0x00009288: 2201    	movs    r2, #1
      0x0000928a: 9203    	str     r2, [sp, #12]
      0x0000928c: 3c01    	subs    r4, #1
      0x0000928e: f0008004	beq.w   +8 (0x0000929a)
      0x00009292: 2001    	movs    r0, #1
      0x00009294: b005    	add     sp, sp, #20
      0x00009296: e8bd8060	pop     {r5, r6, pc}
      0x0000929a: f8d9e230	ldr.w   lr, [r9, #560]  ; pTestSuspend
      0x0000929e: 47f0    	blx     lr
      suspend point dex PC: 0x0005
      0x000092a0: e7f7    	b       -18 (0x00009292)
      0x000092a2: 0000    	lsls    r0, r0, #0
  6: int com.android.cm3.MethodAtom.notInlineableSeries(int) (dex_method_idx=80) 1
    DEX CODE:
      0x0000: const/4 v3, #+1
      0x0001: move v0, v5
      0x0002: iget v2, v4, I com.android.cm3.MethodAtom.depthCount // field@32
      0x0004: add-int/lit8 v2, v2, #+1
      0x0006: iput v2, v4, I com.android.cm3.MethodAtom.depthCount // field@32
      0x0008: if-nez v5, +4
      0x000a: move v1, v0
      0x000b: return v1
      0x000c: and-int/lit8 v2, v0, #+1
      0x000e: if-eqz v2, +11
      0x0010: sub-int v2, v5, v3
      0x0012: invoke-virtual {v4, v2}, int com.android.cm3.MethodAtom.notInlineableSeries(int) // method@80
      0x0015: move-result v2
      0x0016: add-int/2addr v0, v2
      0x0017: move v1, v0
      0x0018: goto -13
      0x0019: sub-int v2, v5, v3
      0x001b: invoke-virtual {v4, v2}, int com.android.cm3.MethodAtom.notInlineableSeries(int) // method@80
      0x001e: move-result v2
      0x001f: add-int/lit8 v2, v2, #+1
      0x0021: add-int/2addr v0, v2
      0x0022: goto -11
    OatMethodOffsets (offset=0x000046a4)
      code_offset: 0x000092c1 
      gc_map: (offset=0x00004f70)
    OatQuickMethodHeader (offset=0x000092a8)
      mapping_table: (offset=0x0000550e)
      vmap_table: (offset=0x00005697)
      v2/r5, v0/r6, v4/r7, v5/r8, v1/r10, v65534/r11, v65535/r15
    QuickMethodFrameInfo
      frame_size_in_bytes: 64
      core_spill_mask: 0x00008de0 (r5, r6, r7, r8, r10, r11, r15)
      fp_spill_mask: 0x00000000 
    CODE: (code_offset=0x000092c1 size_offset=0x000092bc size=140)...
      0x000092c0: f5bd5c00	subs    r12, sp, #8192
      0x000092c4: f8dcc000	ldr.w   r12, [r12, #0]
      suspend point dex PC: 0x0000
      GC map objects:  v4 (r7)
      0x000092c8: e92d4de0	push    {r5, r6, r7, r8, r10, r11, lr}
      0x000092cc: b089    	sub     sp, sp, #36
      0x000092ce: 4683    	mov     r11, r0
      0x000092d0: 9000    	str     r0, [sp, #0]
      0x000092d2: 1c0f    	mov     r7, r1
      0x000092d4: 4690    	mov     r8, r2
      0x000092d6: 2201    	movs    r2, #1
      0x000092d8: 68bd    	ldr     r5, [r7, #8]
      0x000092da: 9207    	str     r2, [sp, #28]
      0x000092dc: 4646    	mov     r6, r8
      0x000092de: 1c6d    	adds    r5, r5, #1
      0x000092e0: 60bd    	str     r5, [r7, #8]
      0x000092e2: f1b80f00	cmp.w   r8, #0
      0x000092e6: d107    	bne     +14 (0x000092f8)
      0x000092e8: 46b2    	mov     r10, r6
      0x000092ea: 3c01    	subs    r4, #1
      0x000092ec: f0008026	beq.w   +76 (0x0000933c)
      0x000092f0: 4650    	mov     r0, r10
      0x000092f2: b009    	add     sp, sp, #36
      0x000092f4: e8bd8de0	pop     {r5, r6, r7, r8, r10, r11, pc}
      0x000092f8: f0060501	and     r5, r6, #1
      0x000092fc: b185    	cbz     r5, +32 (0x00009320)
      0x000092fe: f11835ff	adds    r5, r8, #-1
      0x00009302: 1c39    	mov     r1, r7
      0x00009304: 6808    	ldr     r0, [r1, #0]
      0x00009306: 1c2a    	mov     r2, r5
      0x00009308: f8d001b0	ldr.w   r0, [r0, #432]
      0x0000930c: f8d0e028	ldr.w   lr, [r0, #40]
      0x00009310: 47f0    	blx     lr
      suspend point dex PC: 0x0012
      GC map objects:  v4 (r7)
      0x00009312: 1c05    	mov     r5, r0
      0x00009314: 1976    	adds    r6, r6, r5
      0x00009316: 46b2    	mov     r10, r6
      0x00009318: 3c01    	subs    r4, #1
      0x0000931a: f47fafe6	bne.w   -52 (0x000092ea)
      0x0000931e: e011    	b       +34 (0x00009344)
      0x00009320: f11835ff	adds    r5, r8, #-1
      0x00009324: 1c39    	mov     r1, r7
      0x00009326: 6808    	ldr     r0, [r1, #0]
      0x00009328: 1c2a    	mov     r2, r5
      0x0000932a: f8d001b0	ldr.w   r0, [r0, #432]
      0x0000932e: f8d0e028	ldr.w   lr, [r0, #40]
      0x00009332: 47f0    	blx     lr
      suspend point dex PC: 0x001b
      GC map objects:  v4 (r7)
      0x00009334: 1c05    	mov     r5, r0
      0x00009336: 1c6d    	adds    r5, r5, #1
      0x00009338: 1976    	adds    r6, r6, r5
      0x0000933a: e7ec    	b       -40 (0x00009316)
      0x0000933c: f8d9e230	ldr.w   lr, [r9, #560]  ; pTestSuspend
      0x00009340: 47f0    	blx     lr
      suspend point dex PC: 0x000b
      0x00009342: e7d5    	b       -86 (0x000092f0)
      0x00009344: f8d9e230	ldr.w   lr, [r9, #560]  ; pTestSuspend
      0x00009348: 47f0    	blx     lr
      suspend point dex PC: 0x0018
      GC map objects:  v4 (r7)
      0x0000934a: e7ce    	b       -100 (0x000092ea)
  7: void com.android.cm3.MethodAtom.setLocal() (dex_method_idx=81) 1
    DEX CODE:
      0x0000: return-void
    OatMethodOffsets (offset=0x000046ac)
      code_offset: 0x00006571 
      gc_map: (offset=0x00004842)
    OatQuickMethodHeader (offset=0x00006558)
      mapping_table: (offset=0x000050dc)
      vmap_table: (offset=0x000055db)
      
    QuickMethodFrameInfo
      frame_size_in_bytes: 0
      core_spill_mask: 0x00000000 
      fp_spill_mask: 0x00000000 
    CODE: (code_offset=0x00006571 size_offset=0x0000656c size=4)...
      0x00006570: 4770    	bx      lr
      0x00006572: 0000    	lsls    r0, r0, #0
  8: void com.android.cm3.MethodAtom.setRemote() (dex_method_idx=82) 1
    DEX CODE:
      0x0000: return-void
    OatMethodOffsets (offset=0x000046b4)
      code_offset: 0x00006571 
      gc_map: (offset=0x00004842)
    OatQuickMethodHeader (offset=0x00006558)
      mapping_table: (offset=0x000050dc)
      vmap_table: (offset=0x000055db)
      
    QuickMethodFrameInfo
      frame_size_in_bytes: 0
      core_spill_mask: 0x00000000 
      fp_spill_mask: 0x00000000 
    CODE: (code_offset=0x00006571 size_offset=0x0000656c size=4)...
      0x00006570: 4770    	bx      lr
      0x00006572: 0000    	lsls    r0, r0, #0
  9: java.lang.String com.android.cm3.MethodAtom.testName() (dex_method_idx=83) 1
    DEX CODE:
      0x0000: new-instance v0, java.lang.String // type@39
      0x0002: const-string v1, "Method" // string@90
      0x0004: invoke-direct {v0, v1}, void java.lang.String.<init>(java.lang.String) // method@121
      0x0007: return-object v0
    OatMethodOffsets (offset=0x000046bc)
      code_offset: 0x00009369 
      gc_map: (offset=0x00004ea2)
    OatQuickMethodHeader (offset=0x00009350)
      mapping_table: (offset=0x00005492)
      vmap_table: (offset=0x0000566a)
      v0/r5, v65534/r6, v1/r7, v65535/r15
    QuickMethodFrameInfo
      frame_size_in_bytes: 48
      core_spill_mask: 0x000080e0 (r5, r6, r7, r15)
      fp_spill_mask: 0x00000000 
    CODE: (code_offset=0x00009369 size_offset=0x00009364 size=104)...
      0x00009368: f5bd5c00	subs    r12, sp, #8192
      0x0000936c: f8dcc000	ldr.w   r12, [r12, #0]
      suspend point dex PC: 0x0000
      GC map objects:  v2 ([sp + #52])
      0x00009370: e92d40e0	push    {r5, r6, r7, lr}
      0x00009374: b088    	sub     sp, sp, #32
      0x00009376: 1c06    	mov     r6, r0
      0x00009378: 9000    	str     r0, [sp, #0]
      0x0000937a: 910d    	str     r1, [sp, #52]
      0x0000937c: f8d9e12c	ldr.w   lr, [r9, #300]  ; pAllocObjectInitialized
      0x00009380: 1c31    	mov     r1, r6
      0x00009382: f6450070	movw    r0, #22640
      0x00009386: f6c6708b	movt    r0, #28555
      0x0000938a: 47f0    	blx     lr
      suspend point dex PC: 0x0000
      GC map objects:  v2 ([sp + #52])
      0x0000938c: 1c05    	mov     r5, r0
      0x0000938e: 6970    	ldr     r0, [r6, #20]
      0x00009390: f8d00174	ldr.w   r0, [r0, #372]
      0x00009394: b190    	cbz     r0, +36 (0x000093bc)
      0x00009396: 1c07    	mov     r7, r0
      0x00009398: f6457e79	movw    lr, #24441
      0x0000939c: f2c71eef	movt    lr, #29167
      0x000093a0: f24d7048	movw    r0, #55112
      0x000093a4: f6c67090	movt    r0, #28560
      0x000093a8: 1c29    	mov     r1, r5
      0x000093aa: 1c3a    	mov     r2, r7
      0x000093ac: 47f0    	blx     lr
      suspend point dex PC: 0x0004
      GC map objects:  v0 (r5), v1 (r7), v2 ([sp + #52])
      0x000093ae: 3c01    	subs    r4, #1
      0x000093b0: f000800a	beq.w   +20 (0x000093c8)
      0x000093b4: 1c28    	mov     r0, r5
      0x000093b6: b008    	add     sp, sp, #32
      0x000093b8: e8bd80e0	pop     {r5, r6, r7, pc}
      0x000093bc: f8d9e150	ldr.w   lr, [r9, #336]  ; pResolveString
      0x000093c0: 1c30    	mov     r0, r6
      0x000093c2: 215a    	movs    r1, #90
      0x000093c4: 47f0    	blx     lr
      suspend point dex PC: 0x0002
      GC map objects:  v0 (r5), v2 ([sp + #52])
      0x000093c6: e7e6    	b       -52 (0x00009396)
      0x000093c8: f8d9e230	ldr.w   lr, [r9, #560]  ; pTestSuspend
      0x000093cc: 47f0    	blx     lr
      suspend point dex PC: 0x0007
      GC map objects:  v0 (r5)
      0x000093ce: e7f1    	b       -30 (0x000093b4)
12: Lcom/android/cm3/R$attr; (offset=0x000046c4) (type_idx=21) (StatusInitialized) (OatClassAllCompiled)
  0: void com.android.cm3.R$attr.<init>() (dex_method_idx=84) 65537
    DEX CODE:
      0x0000: invoke-direct {v0}, void java.lang.Object.<init>() // method@120
      0x0003: return-void
    OatMethodOffsets (offset=0x000046c8)
      code_offset: 0x00007879 
      gc_map: (offset=0x00004838)
    OatQuickMethodHeader (offset=0x00007860)
      mapping_table: (offset=0x000050d4)
      vmap_table: (offset=0x000055d7)
      v0/r5, v65534/r6, v65535/r15
    QuickMethodFrameInfo
      frame_size_in_bytes: 32
      core_spill_mask: 0x00008060 (r5, r6, r15)
      fp_spill_mask: 0x00000000 
    CODE: (code_offset=0x00007879 size_offset=0x00007874 size=60)...
      0x00007878: f5bd5c00	subs    r12, sp, #8192
      0x0000787c: f8dcc000	ldr.w   r12, [r12, #0]
      suspend point dex PC: 0x0000
      GC map objects:  v0 (r5)
      0x00007880: e92d4060	push    {r5, r6, lr}
      0x00007884: b085    	sub     sp, sp, #20
      0x00007886: 1c06    	mov     r6, r0
      0x00007888: 9000    	str     r0, [sp, #0]
      0x0000788a: 1c0d    	mov     r5, r1
      0x0000788c: f24b0e71	movw    lr, #45169
      0x00007890: f2c71ee7	movt    lr, #29159
      0x00007894: f24d3060	movw    r0, #54112
      0x00007898: f6c6708c	movt    r0, #28556
      0x0000789c: 1c29    	mov     r1, r5
      0x0000789e: 47f0    	blx     lr
      suspend point dex PC: 0x0000
      GC map objects:  v0 (r5)
      0x000078a0: 3c01    	subs    r4, #1
      0x000078a2: f0008003	beq.w   +6 (0x000078ac)
      0x000078a6: b005    	add     sp, sp, #20
      0x000078a8: e8bd8060	pop     {r5, r6, pc}
      0x000078ac: f8d9e230	ldr.w   lr, [r9, #560]  ; pTestSuspend
      0x000078b0: 47f0    	blx     lr
      suspend point dex PC: 0x0003
      0x000078b2: e7f8    	b       -16 (0x000078a6)
13: Lcom/android/cm3/R$drawable; (offset=0x000046d0) (type_idx=22) (StatusVerified) (OatClassAllCompiled)
  0: void com.android.cm3.R$drawable.<init>() (dex_method_idx=85) 65537
    DEX CODE:
      0x0000: invoke-direct {v0}, void java.lang.Object.<init>() // method@120
      0x0003: return-void
    OatMethodOffsets (offset=0x000046d4)
      code_offset: 0x00007879 
      gc_map: (offset=0x00004838)
    OatQuickMethodHeader (offset=0x00007860)
      mapping_table: (offset=0x000050d4)
      vmap_table: (offset=0x000055d7)
      v0/r5, v65534/r6, v65535/r15
    QuickMethodFrameInfo
      frame_size_in_bytes: 32
      core_spill_mask: 0x00008060 (r5, r6, r15)
      fp_spill_mask: 0x00000000 
    CODE: (code_offset=0x00007879 size_offset=0x00007874 size=60)...
      0x00007878: f5bd5c00	subs    r12, sp, #8192
      0x0000787c: f8dcc000	ldr.w   r12, [r12, #0]
      suspend point dex PC: 0x0000
      GC map objects:  v0 (r5)
      0x00007880: e92d4060	push    {r5, r6, lr}
      0x00007884: b085    	sub     sp, sp, #20
      0x00007886: 1c06    	mov     r6, r0
      0x00007888: 9000    	str     r0, [sp, #0]
      0x0000788a: 1c0d    	mov     r5, r1
      0x0000788c: f24b0e71	movw    lr, #45169
      0x00007890: f2c71ee7	movt    lr, #29159
      0x00007894: f24d3060	movw    r0, #54112
      0x00007898: f6c6708c	movt    r0, #28556
      0x0000789c: 1c29    	mov     r1, r5
      0x0000789e: 47f0    	blx     lr
      suspend point dex PC: 0x0000
      GC map objects:  v0 (r5)
      0x000078a0: 3c01    	subs    r4, #1
      0x000078a2: f0008003	beq.w   +6 (0x000078ac)
      0x000078a6: b005    	add     sp, sp, #20
      0x000078a8: e8bd8060	pop     {r5, r6, pc}
      0x000078ac: f8d9e230	ldr.w   lr, [r9, #560]  ; pTestSuspend
      0x000078b0: 47f0    	blx     lr
      suspend point dex PC: 0x0003
      0x000078b2: e7f8    	b       -16 (0x000078a6)
14: Lcom/android/cm3/R$layout; (offset=0x000046dc) (type_idx=23) (StatusVerified) (OatClassAllCompiled)
  0: void com.android.cm3.R$layout.<init>() (dex_method_idx=86) 65537
    DEX CODE:
      0x0000: invoke-direct {v0}, void java.lang.Object.<init>() // method@120
      0x0003: return-void
    OatMethodOffsets (offset=0x000046e0)
      code_offset: 0x00007879 
      gc_map: (offset=0x00004838)
    OatQuickMethodHeader (offset=0x00007860)
      mapping_table: (offset=0x000050d4)
      vmap_table: (offset=0x000055d7)
      v0/r5, v65534/r6, v65535/r15
    QuickMethodFrameInfo
      frame_size_in_bytes: 32
      core_spill_mask: 0x00008060 (r5, r6, r15)
      fp_spill_mask: 0x00000000 
    CODE: (code_offset=0x00007879 size_offset=0x00007874 size=60)...
      0x00007878: f5bd5c00	subs    r12, sp, #8192
      0x0000787c: f8dcc000	ldr.w   r12, [r12, #0]
      suspend point dex PC: 0x0000
      GC map objects:  v0 (r5)
      0x00007880: e92d4060	push    {r5, r6, lr}
      0x00007884: b085    	sub     sp, sp, #20
      0x00007886: 1c06    	mov     r6, r0
      0x00007888: 9000    	str     r0, [sp, #0]
      0x0000788a: 1c0d    	mov     r5, r1
      0x0000788c: f24b0e71	movw    lr, #45169
      0x00007890: f2c71ee7	movt    lr, #29159
      0x00007894: f24d3060	movw    r0, #54112
      0x00007898: f6c6708c	movt    r0, #28556
      0x0000789c: 1c29    	mov     r1, r5
      0x0000789e: 47f0    	blx     lr
      suspend point dex PC: 0x0000
      GC map objects:  v0 (r5)
      0x000078a0: 3c01    	subs    r4, #1
      0x000078a2: f0008003	beq.w   +6 (0x000078ac)
      0x000078a6: b005    	add     sp, sp, #20
      0x000078a8: e8bd8060	pop     {r5, r6, pc}
      0x000078ac: f8d9e230	ldr.w   lr, [r9, #560]  ; pTestSuspend
      0x000078b0: 47f0    	blx     lr
      suspend point dex PC: 0x0003
      0x000078b2: e7f8    	b       -16 (0x000078a6)
15: Lcom/android/cm3/R$string; (offset=0x000046e8) (type_idx=24) (StatusVerified) (OatClassAllCompiled)
  0: void com.android.cm3.R$string.<init>() (dex_method_idx=87) 65537
    DEX CODE:
      0x0000: invoke-direct {v0}, void java.lang.Object.<init>() // method@120
      0x0003: return-void
    OatMethodOffsets (offset=0x000046ec)
      code_offset: 0x00007879 
      gc_map: (offset=0x00004838)
    OatQuickMethodHeader (offset=0x00007860)
      mapping_table: (offset=0x000050d4)
      vmap_table: (offset=0x000055d7)
      v0/r5, v65534/r6, v65535/r15
    QuickMethodFrameInfo
      frame_size_in_bytes: 32
      core_spill_mask: 0x00008060 (r5, r6, r15)
      fp_spill_mask: 0x00000000 
    CODE: (code_offset=0x00007879 size_offset=0x00007874 size=60)...
      0x00007878: f5bd5c00	subs    r12, sp, #8192
      0x0000787c: f8dcc000	ldr.w   r12, [r12, #0]
      suspend point dex PC: 0x0000
      GC map objects:  v0 (r5)
      0x00007880: e92d4060	push    {r5, r6, lr}
      0x00007884: b085    	sub     sp, sp, #20
      0x00007886: 1c06    	mov     r6, r0
      0x00007888: 9000    	str     r0, [sp, #0]
      0x0000788a: 1c0d    	mov     r5, r1
      0x0000788c: f24b0e71	movw    lr, #45169
      0x00007890: f2c71ee7	movt    lr, #29159
      0x00007894: f24d3060	movw    r0, #54112
      0x00007898: f6c6708c	movt    r0, #28556
      0x0000789c: 1c29    	mov     r1, r5
      0x0000789e: 47f0    	blx     lr
      suspend point dex PC: 0x0000
      GC map objects:  v0 (r5)
      0x000078a0: 3c01    	subs    r4, #1
      0x000078a2: f0008003	beq.w   +6 (0x000078ac)
      0x000078a6: b005    	add     sp, sp, #20
      0x000078a8: e8bd8060	pop     {r5, r6, pc}
      0x000078ac: f8d9e230	ldr.w   lr, [r9, #560]  ; pTestSuspend
      0x000078b0: 47f0    	blx     lr
      suspend point dex PC: 0x0003
      0x000078b2: e7f8    	b       -16 (0x000078a6)
16: Lcom/android/cm3/R; (offset=0x000046f4) (type_idx=25) (StatusInitialized) (OatClassAllCompiled)
  0: void com.android.cm3.R.<init>() (dex_method_idx=88) 65537
    DEX CODE:
      0x0000: invoke-direct {v0}, void java.lang.Object.<init>() // method@120
      0x0003: return-void
    OatMethodOffsets (offset=0x000046f8)
      code_offset: 0x00007879 
      gc_map: (offset=0x00004838)
    OatQuickMethodHeader (offset=0x00007860)
      mapping_table: (offset=0x000050d4)
      vmap_table: (offset=0x000055d7)
      v0/r5, v65534/r6, v65535/r15
    QuickMethodFrameInfo
      frame_size_in_bytes: 32
      core_spill_mask: 0x00008060 (r5, r6, r15)
      fp_spill_mask: 0x00000000 
    CODE: (code_offset=0x00007879 size_offset=0x00007874 size=60)...
      0x00007878: f5bd5c00	subs    r12, sp, #8192
      0x0000787c: f8dcc000	ldr.w   r12, [r12, #0]
      suspend point dex PC: 0x0000
      GC map objects:  v0 (r5)
      0x00007880: e92d4060	push    {r5, r6, lr}
      0x00007884: b085    	sub     sp, sp, #20
      0x00007886: 1c06    	mov     r6, r0
      0x00007888: 9000    	str     r0, [sp, #0]
      0x0000788a: 1c0d    	mov     r5, r1
      0x0000788c: f24b0e71	movw    lr, #45169
      0x00007890: f2c71ee7	movt    lr, #29159
      0x00007894: f24d3060	movw    r0, #54112
      0x00007898: f6c6708c	movt    r0, #28556
      0x0000789c: 1c29    	mov     r1, r5
      0x0000789e: 47f0    	blx     lr
      suspend point dex PC: 0x0000
      GC map objects:  v0 (r5)
      0x000078a0: 3c01    	subs    r4, #1
      0x000078a2: f0008003	beq.w   +6 (0x000078ac)
      0x000078a6: b005    	add     sp, sp, #20
      0x000078a8: e8bd8060	pop     {r5, r6, pc}
      0x000078ac: f8d9e230	ldr.w   lr, [r9, #560]  ; pTestSuspend
      0x000078b0: 47f0    	blx     lr
      suspend point dex PC: 0x0003
      0x000078b2: e7f8    	b       -16 (0x000078a6)
17: Lcom/android/cm3/SieveAtom; (offset=0x00004700) (type_idx=26) (StatusInitialized) (OatClassAllCompiled)
  0: void com.android.cm3.SieveAtom.<init>() (dex_method_idx=89) 65537
    DEX CODE:
      0x0000: invoke-direct {v1}, void java.lang.Object.<init>() // method@120
      0x0003: const/16 v0, #+512
      0x0005: iput v0, v1, I com.android.cm3.SieveAtom.wMaxCandidate // field@38
      0x0007: return-void
    OatMethodOffsets (offset=0x00004704)
      code_offset: 0x000093e9 
      gc_map: (offset=0x00004e7f)
    OatQuickMethodHeader (offset=0x000093d0)
      mapping_table: (offset=0x0000547b)
      vmap_table: (offset=0x00005645)
      v1/r5, v65534/r6, v65535/r15
    QuickMethodFrameInfo
      frame_size_in_bytes: 32
      core_spill_mask: 0x00008060 (r5, r6, r15)
      fp_spill_mask: 0x00000000 
    CODE: (code_offset=0x000093e9 size_offset=0x000093e4 size=68)...
      0x000093e8: f5bd5c00	subs    r12, sp, #8192
      0x000093ec: f8dcc000	ldr.w   r12, [r12, #0]
      suspend point dex PC: 0x0000
      GC map objects:  v1 (r5)
      0x000093f0: e92d4060	push    {r5, r6, lr}
      0x000093f4: b085    	sub     sp, sp, #20
      0x000093f6: 1c06    	mov     r6, r0
      0x000093f8: 9000    	str     r0, [sp, #0]
      0x000093fa: 1c0d    	mov     r5, r1
      0x000093fc: f24b0e71	movw    lr, #45169
      0x00009400: f2c71ee7	movt    lr, #29159
      0x00009404: f24d3060	movw    r0, #54112
      0x00009408: f6c6708c	movt    r0, #28556
      0x0000940c: 1c29    	mov     r1, r5
      0x0000940e: 47f0    	blx     lr
      suspend point dex PC: 0x0000
      GC map objects:  v1 (r5)
      0x00009410: f44f7200	mov.w   r2, #512
      0x00009414: 9203    	str     r2, [sp, #12]
      0x00009416: 60ea    	str     r2, [r5, #12]
      0x00009418: 3c01    	subs    r4, #1
      0x0000941a: f0008003	beq.w   +6 (0x00009424)
      0x0000941e: b005    	add     sp, sp, #20
      0x00009420: e8bd8060	pop     {r5, r6, pc}
      0x00009424: f8d9e230	ldr.w   lr, [r9, #560]  ; pTestSuspend
      0x00009428: 47f0    	blx     lr
      suspend point dex PC: 0x0007
      0x0000942a: e7f8    	b       -16 (0x0000941e)
  1: int com.android.cm3.SieveAtom.cleanUp() (dex_method_idx=90) 1
    DEX CODE:
      0x0000: const/4 v0, #+0
      0x0001: return v0
    OatMethodOffsets (offset=0x0000470c)
      code_offset: 0x00007ea1 
      gc_map: (offset=0x00004842)
    OatQuickMethodHeader (offset=0x00007e88)
      mapping_table: (offset=0x000050dc)
      vmap_table: (offset=0x000055db)
      
    QuickMethodFrameInfo
      frame_size_in_bytes: 0
      core_spill_mask: 0x00000000 
      fp_spill_mask: 0x00000000 
    CODE: (code_offset=0x00007ea1 size_offset=0x00007e9c size=4)...
      0x00007ea0: 2000    	movs    r0, #0
      0x00007ea2: 4770    	bx      lr
  2: int com.android.cm3.SieveAtom.defaultMagnification() (dex_method_idx=91) 1
    DEX CODE:
      0x0000: const/16 v0, #+2771
      0x0002: return v0
    OatMethodOffsets (offset=0x00004714)
      code_offset: 0x00009449 
      gc_map: (offset=0x00004842)
    OatQuickMethodHeader (offset=0x00009430)
      mapping_table: (offset=0x000050dc)
      vmap_table: (offset=0x000055db)
      
    QuickMethodFrameInfo
      frame_size_in_bytes: 0
      core_spill_mask: 0x00000000 
      fp_spill_mask: 0x00000000 
    CODE: (code_offset=0x00009449 size_offset=0x00009444 size=8)...
      0x00009448: f64020d3	movw    r0, #2771
      0x0000944c: 4770    	bx      lr
      0x0000944e: 0000    	lsls    r0, r0, #0
  3: int com.android.cm3.SieveAtom.execute() (dex_method_idx=92) 1
    DEX CODE:
      0x0000: const/4 v7, #+1
      0x0001: const/4 v3, #+1
      0x0002: const/4 v1, #+0
      0x0003: iget-object v5, v8, [I com.android.cm3.SieveAtom.wPrimes // field@39
      0x0005: const/4 v6, #+0
      0x0006: aput v7, v5, v6
      0x0008: iget-object v5, v8, [I com.android.cm3.SieveAtom.wPrimes // field@39
      0x000a: const/4 v6, #+2
      0x000b: aput v6, v5, v7
      0x000d: const/4 v3, #+2
      0x000e: const/4 v2, #+3
      0x000f: iget v5, v8, I com.android.cm3.SieveAtom.wMaxCandidate // field@38
      0x0011: if-lt v2, v5, +3
      0x0013: return v3
      0x0014: const/4 v4, #+1
      0x0015: const/4 v0, #+1
      0x0016: if-ge v4, v3, +4
      0x0018: if-nez v0, +15
      0x001a: if-eqz v0, +10
      0x001c: add-int/lit8 v3, v3, #+1
      0x001e: iget-object v5, v8, [I com.android.cm3.SieveAtom.wPrimes // field@39
      0x0020: sub-int v6, v3, v7
      0x0022: aput v2, v5, v6
      0x0024: add-int/lit8 v2, v2, #+1
      0x0026: goto -23
      0x0027: iget-object v5, v8, [I com.android.cm3.SieveAtom.wPrimes // field@39
      0x0029: aget v5, v5, v4
      0x002b: if-lez v5, +19
      0x002d: iget-object v5, v8, [I com.android.cm3.SieveAtom.wPrimes // field@39
      0x002f: aget v5, v5, v4
      0x0031: div-int/lit8 v6, v2, #+2
      0x0033: if-gt v5, v6, +11
      0x0035: iget-object v5, v8, [I com.android.cm3.SieveAtom.wPrimes // field@39
      0x0037: aget v5, v5, v4
      0x0039: rem-int v5, v2, v5
      0x003b: if-nez v5, +3
      0x003d: const/4 v0, #+0
      0x003e: add-int/lit8 v4, v4, #+1
      0x0040: goto -42
    OatMethodOffsets (offset=0x0000471c)
      code_offset: 0x00009469 
      gc_map: (offset=0x00004f7e)
    OatQuickMethodHeader (offset=0x00009450)
      mapping_table: (offset=0x0000551a)
      vmap_table: (offset=0x0000569f)
      v0/r5, v3/r6, v2/r7, v4/r8, v5/r10, v8/r11, v65535/r15
    QuickMethodFrameInfo
      frame_size_in_bytes: 80
      core_spill_mask: 0x00008de0 (r5, r6, r7, r8, r10, r11, r15)
      fp_spill_mask: 0x00000000 
    CODE: (code_offset=0x00009469 size_offset=0x00009464 size=356)...
      0x00009468: e92d4de0	push    {r5, r6, r7, r8, r10, r11, lr}
      0x0000946c: b08d    	sub     sp, sp, #52
      0x0000946e: 9000    	str     r0, [sp, #0]
      0x00009470: 468b    	mov     r11, r1
      0x00009472: 2201    	movs    r2, #1
      0x00009474: 920b    	str     r2, [sp, #44]
      0x00009476: 2601    	movs    r6, #1
      0x00009478: f8dba008	ldr.w   r10, [r11, #8]
      0x0000947c: 2300    	movs    r3, #0
      0x0000947e: 9305    	str     r3, [sp, #20]
      0x00009480: f04f0c00	mov.w   r12, #0
      0x00009484: f8da0008	ldr.w   r0, [r10, #8]
      suspend point dex PC: 0x0006
      GC map objects:  v5 (r10), v8 (r11)
      0x00009488: 2800    	cmp     r0, #0
      0x0000948a: d074    	beq     +232 (0x00009576)
      0x0000948c: f8ca200c	str.w   r2, [r10, #12]
      suspend point dex PC: 0x0006
      GC map objects:  v5 (r10), v8 (r11)
      0x00009490: f8dba008	ldr.w   r10, [r11, #8]
      0x00009494: f04f0c02	mov.w   r12, #2
      0x00009498: f8cdc028	str.w   r12, [sp, #40]
      0x0000949c: f8da1008	ldr.w   r1, [r10, #8]
      suspend point dex PC: 0x000b
      GC map objects:  v5 (r10), v8 (r11)
      0x000094a0: 2901    	cmp     r1, #1
      0x000094a2: d96d    	bls     +218 (0x00009580)
      0x000094a4: f8cac010	str.w   r12, [r10, #16]
      suspend point dex PC: 0x000b
      GC map objects:  v5 (r10), v8 (r11)
      0x000094a8: 2602    	movs    r6, #2
      0x000094aa: 2703    	movs    r7, #3
      0x000094ac: f8dba00c	ldr.w   r10, [r11, #12]
      0x000094b0: 4557    	cmp     r7, r10
      0x000094b2: f2c08007	blt.w   +14 (0x000094c4)
      0x000094b6: 3c01    	subs    r4, #1
      0x000094b8: f0008066	beq.w   +204 (0x00009588)
      0x000094bc: 1c30    	mov     r0, r6
      0x000094be: b00d    	add     sp, sp, #52
      0x000094c0: e8bd8de0	pop     {r5, r6, r7, r8, r10, r11, pc}
      0x000094c4: f04f0801	mov.w   r8, #1
      0x000094c8: 2501    	movs    r5, #1
      0x000094ca: 45b0    	cmp     r8, r6
      0x000094cc: f2808001	bge.w   +2 (0x000094d2)
      0x000094d0: b99d    	cbnz    r5, +38 (0x000094fa)
      0x000094d2: b16d    	cbz     r5, +26 (0x000094f0)
      0x000094d4: f8dba008	ldr.w   r10, [r11, #8]
      0x000094d8: 1c76    	adds    r6, r6, #1
      0x000094da: 1e72    	subs    r2, r6, #1
      0x000094dc: 920a    	str     r2, [sp, #40]
      0x000094de: f8dac008	ldr.w   r12, [r10, #8]
      suspend point dex PC: 0x0022
      GC map objects:  v5 (r10), v8 (r11)
      0x000094e2: f11a030c	adds    r3, r10, #12
      0x000094e6: 4562    	cmp     r2, r12
      0x000094e8: f0808052	bcs.w   +164 (0x00009590)
      0x000094ec: f8437022	str.w   r7, [r3, r2, lsl #2]
      suspend point dex PC: 0x0022
      GC map objects:  v5 (r10), v8 (r11)
      0x000094f0: 1c7f    	adds    r7, r7, #1
      0x000094f2: 3c01    	subs    r4, #1
      0x000094f4: f47fafda	bne.w   -76 (0x000094ac)
      0x000094f8: e04f    	b       +158 (0x0000959a)
      0x000094fa: f8dba008	ldr.w   r10, [r11, #8]
      0x000094fe: f8da0008	ldr.w   r0, [r10, #8]
      suspend point dex PC: 0x0029
      GC map objects:  v5 (r10), v8 (r11)
      0x00009502: f11a010c	adds    r1, r10, #12
      0x00009506: 4580    	cmp     r8, r0
      0x00009508: f080804b	bcs.w   +150 (0x000095a2)
      0x0000950c: f851a028	ldr.w   r10, [r1, r8, lsl #2]
      suspend point dex PC: 0x0029
      GC map objects:  v5 (r10), v8 (r11)
      0x00009510: f1ba0f00	cmp.w   r10, #0
      0x00009514: dd29    	ble     +82 (0x0000956a)
      0x00009516: f8dba008	ldr.w   r10, [r11, #8]
      0x0000951a: f8da2008	ldr.w   r2, [r10, #8]
      suspend point dex PC: 0x002f
      GC map objects:  v5 (r10), v8 (r11)
      0x0000951e: f11a030c	adds    r3, r10, #12
      0x00009522: 4590    	cmp     r8, r2
      0x00009524: f0808042	bcs.w   +132 (0x000095ac)
      0x00009528: f853a028	ldr.w   r10, [r3, r8, lsl #2]
      suspend point dex PC: 0x002f
      GC map objects:  v5 (r10), v8 (r11)
      0x0000952c: 0ff8    	lsrs    r0, r7, #31
      0x0000952e: 19c0    	adds    r0, r0, r7
      0x00009530: ea4f0c60	mov.w   r12, r0, asr #1
      0x00009534: f8cdc028	str.w   r12, [sp, #40]
      0x00009538: 45e2    	cmp     r10, r12
      0x0000953a: f3008016	bgt.w   +44 (0x0000956a)
      0x0000953e: f8dba008	ldr.w   r10, [r11, #8]
      0x00009542: f8da1008	ldr.w   r1, [r10, #8]
      suspend point dex PC: 0x0037
      GC map objects:  v5 (r10), v8 (r11)
      0x00009546: f11a020c	adds    r2, r10, #12
      0x0000954a: 4588    	cmp     r8, r1
      0x0000954c: f0808033	bcs.w   +102 (0x000095b6)
      0x00009550: f852a028	ldr.w   r10, [r2, r8, lsl #2]
      suspend point dex PC: 0x0037
      GC map objects:  v5 (r10), v8 (r11)
      0x00009554: f8d9e1e0	ldr.w   lr, [r9, #480]  ; pIdivmod
      0x00009558: 4651    	mov     r1, r10
      0x0000955a: 1c38    	mov     r0, r7
      0x0000955c: b379    	cbz     r1, +94 (0x000095be)
      0x0000955e: 47f0    	blx     lr
      0x00009560: 468a    	mov     r10, r1
      0x00009562: f1ba0f00	cmp.w   r10, #0
      0x00009566: d100    	bne     +0 (0x0000956a)
      0x00009568: 2500    	movs    r5, #0
      0x0000956a: f1180801	adds    r8, r8, #1
      0x0000956e: 3c01    	subs    r4, #1
      0x00009570: f47fafab	bne.w   -170 (0x000094ca)
      0x00009574: e026    	b       +76 (0x000095c4)
      0x00009576: 1c01    	mov     r1, r0
      0x00009578: 2000    	movs    r0, #0
      0x0000957a: f8d9e238	ldr.w   lr, [r9, #568]  ; pThrowArrayBounds
      0x0000957e: 47f0    	blx     lr
      suspend point dex PC: 0x0006
      GC map objects:  v5 (r10), v8 (r11)
      0x00009580: 2001    	movs    r0, #1
      0x00009582: f8d9e238	ldr.w   lr, [r9, #568]  ; pThrowArrayBounds
      0x00009586: 47f0    	blx     lr
      suspend point dex PC: 0x000b
      GC map objects:  v5 (r10), v8 (r11)
      0x00009588: f8d9e230	ldr.w   lr, [r9, #560]  ; pTestSuspend
      0x0000958c: 47f0    	blx     lr
      suspend point dex PC: 0x0013
      0x0000958e: e795    	b       -214 (0x000094bc)
      0x00009590: f8d9e238	ldr.w   lr, [r9, #568]  ; pThrowArrayBounds
      0x00009594: 1c10    	mov     r0, r2
      0x00009596: 4661    	mov     r1, r12
      0x00009598: 47f0    	blx     lr
      suspend point dex PC: 0x0022
      GC map objects:  v5 (r10), v8 (r11)
      0x0000959a: f8d9e230	ldr.w   lr, [r9, #560]  ; pTestSuspend
      0x0000959e: 47f0    	blx     lr
      suspend point dex PC: 0x0026
      GC map objects:  v8 (r11)
      0x000095a0: e784    	b       -248 (0x000094ac)
      0x000095a2: f8d9e238	ldr.w   lr, [r9, #568]  ; pThrowArrayBounds
      0x000095a6: 1c01    	mov     r1, r0
      0x000095a8: 4640    	mov     r0, r8
      0x000095aa: 47f0    	blx     lr
      suspend point dex PC: 0x0029
      GC map objects:  v5 (r10), v8 (r11)
      0x000095ac: f8d9e238	ldr.w   lr, [r9, #568]  ; pThrowArrayBounds
      0x000095b0: 4640    	mov     r0, r8
      0x000095b2: 1c11    	mov     r1, r2
      0x000095b4: 47f0    	blx     lr
      suspend point dex PC: 0x002f
      GC map objects:  v5 (r10), v8 (r11)
      0x000095b6: f8d9e238	ldr.w   lr, [r9, #568]  ; pThrowArrayBounds
      0x000095ba: 4640    	mov     r0, r8
      0x000095bc: 47f0    	blx     lr
      suspend point dex PC: 0x0037
      GC map objects:  v5 (r10), v8 (r11)
      0x000095be: f8d9e23c	ldr.w   lr, [r9, #572]  ; pThrowDivZero
      0x000095c2: 47f0    	blx     lr
      suspend point dex PC: 0x0039
      GC map objects:  v8 (r11)
      0x000095c4: f8d9e230	ldr.w   lr, [r9, #560]  ; pTestSuspend
      0x000095c8: 47f0    	blx     lr
      suspend point dex PC: 0x0040
      GC map objects:  v8 (r11)
      0x000095ca: e77e    	b       -260 (0x000094ca)
  4: boolean com.android.cm3.SieveAtom.initialize(int) (dex_method_idx=93) 1
    DEX CODE:
      0x0000: if-eqz v2, +4
      0x0002: iput v2, v1, I com.android.cm3.SieveAtom.wMaxCandidate // field@38
      0x0004: iget v0, v1, I com.android.cm3.SieveAtom.wMaxCandidate // field@38
      0x0006: new-array v0, v0, int[] // type@49
      0x0008: iput-object v0, v1, [I com.android.cm3.SieveAtom.wPrimes // field@39
      0x000a: const/4 v0, #+1
      0x000b: return v0
    OatMethodOffsets (offset=0x00004724)
      code_offset: 0x00009011 
      gc_map: (offset=0x00004f46)
    OatQuickMethodHeader (offset=0x00008ff8)
      mapping_table: (offset=0x000054ec)
      vmap_table: (offset=0x00005683)
      v1/r5, v0/r6, v2/r7, v65534/r8, v65535/r15
    QuickMethodFrameInfo
      frame_size_in_bytes: 32
      core_spill_mask: 0x000081e0 (r5, r6, r7, r8, r15)
      fp_spill_mask: 0x00000000 
    CODE: (code_offset=0x00009011 size_offset=0x0000900c size=76)...
      0x00009010: e92d41e0	push    {r5, r6, r7, r8, lr}
      0x00009014: b083    	sub     sp, sp, #12
      0x00009016: 4680    	mov     r8, r0
      0x00009018: 9000    	str     r0, [sp, #0]
      0x0000901a: 1c0d    	mov     r5, r1
      0x0000901c: 1c17    	mov     r7, r2
      0x0000901e: b107    	cbz     r7, +0 (0x00009022)
      0x00009020: 60ef    	str     r7, [r5, #12]
      0x00009022: 68ee    	ldr     r6, [r5, #12]
      0x00009024: f8d9e11c	ldr.w   lr, [r9, #284]  ; pAllocArrayResolved
      0x00009028: 1c32    	mov     r2, r6
      0x0000902a: 4641    	mov     r1, r8
      0x0000902c: f64840e8	movw    r0, #36072
      0x00009030: f6c670a8	movt    r0, #28584
      0x00009034: 47f0    	blx     lr
      suspend point dex PC: 0x0006
      GC map objects:  v1 (r5)
      0x00009036: 1c06    	mov     r6, r0
      0x00009038: 60ae    	str     r6, [r5, #8]
      0x0000903a: b11e    	cbz     r6, +6 (0x00009044)
      0x0000903c: f8d92078	ldr.w   r2, [r9, #120]  ; card_table
      0x00009040: 09eb    	lsrs    r3, r5, #7
      0x00009042: 54d2    	strb    r2, [r2, r3]
      0x00009044: 2601    	movs    r6, #1
      0x00009046: 3c01    	subs    r4, #1
      0x00009048: f0008004	beq.w   +8 (0x00009054)
      0x0000904c: 1c30    	mov     r0, r6
      0x0000904e: b003    	add     sp, sp, #12
      0x00009050: e8bd81e0	pop     {r5, r6, r7, r8, pc}
      0x00009054: f8d9e230	ldr.w   lr, [r9, #560]  ; pTestSuspend
      0x00009058: 47f0    	blx     lr
      suspend point dex PC: 0x000b
      0x0000905a: e7f7    	b       -18 (0x0000904c)
  5: void com.android.cm3.SieveAtom.setLocal() (dex_method_idx=94) 1
    DEX CODE:
      0x0000: return-void
    OatMethodOffsets (offset=0x0000472c)
      code_offset: 0x00006571 
      gc_map: (offset=0x00004842)
    OatQuickMethodHeader (offset=0x00006558)
      mapping_table: (offset=0x000050dc)
      vmap_table: (offset=0x000055db)
      
    QuickMethodFrameInfo
      frame_size_in_bytes: 0
      core_spill_mask: 0x00000000 
      fp_spill_mask: 0x00000000 
    CODE: (code_offset=0x00006571 size_offset=0x0000656c size=4)...
      0x00006570: 4770    	bx      lr
      0x00006572: 0000    	lsls    r0, r0, #0
  6: void com.android.cm3.SieveAtom.setRemote() (dex_method_idx=95) 1
    DEX CODE:
      0x0000: return-void
    OatMethodOffsets (offset=0x00004734)
      code_offset: 0x00006571 
      gc_map: (offset=0x00004842)
    OatQuickMethodHeader (offset=0x00006558)
      mapping_table: (offset=0x000050dc)
      vmap_table: (offset=0x000055db)
      
    QuickMethodFrameInfo
      frame_size_in_bytes: 0
      core_spill_mask: 0x00000000 
      fp_spill_mask: 0x00000000 
    CODE: (code_offset=0x00006571 size_offset=0x0000656c size=4)...
      0x00006570: 4770    	bx      lr
      0x00006572: 0000    	lsls    r0, r0, #0
  7: java.lang.String com.android.cm3.SieveAtom.testName() (dex_method_idx=96) 1
    DEX CODE:
      0x0000: new-instance v0, java.lang.String // type@39
      0x0002: const-string v1, "Sieve" // string@96
      0x0004: invoke-direct {v0, v1}, void java.lang.String.<init>(java.lang.String) // method@121
      0x0007: return-object v0
    OatMethodOffsets (offset=0x0000473c)
      code_offset: 0x000095e9 
      gc_map: (offset=0x00004ea2)
    OatQuickMethodHeader (offset=0x000095d0)
      mapping_table: (offset=0x00005492)
      vmap_table: (offset=0x0000566a)
      v0/r5, v65534/r6, v1/r7, v65535/r15
    QuickMethodFrameInfo
      frame_size_in_bytes: 48
      core_spill_mask: 0x000080e0 (r5, r6, r7, r15)
      fp_spill_mask: 0x00000000 
    CODE: (code_offset=0x000095e9 size_offset=0x000095e4 size=104)...
      0x000095e8: f5bd5c00	subs    r12, sp, #8192
      0x000095ec: f8dcc000	ldr.w   r12, [r12, #0]
      suspend point dex PC: 0x0000
      GC map objects:  v2 ([sp + #52])
      0x000095f0: e92d40e0	push    {r5, r6, r7, lr}
      0x000095f4: b088    	sub     sp, sp, #32
      0x000095f6: 1c06    	mov     r6, r0
      0x000095f8: 9000    	str     r0, [sp, #0]
      0x000095fa: 910d    	str     r1, [sp, #52]
      0x000095fc: f8d9e12c	ldr.w   lr, [r9, #300]  ; pAllocObjectInitialized
      0x00009600: 1c31    	mov     r1, r6
      0x00009602: f6450070	movw    r0, #22640
      0x00009606: f6c6708b	movt    r0, #28555
      0x0000960a: 47f0    	blx     lr
      suspend point dex PC: 0x0000
      GC map objects:  v2 ([sp + #52])
      0x0000960c: 1c05    	mov     r5, r0
      0x0000960e: 6970    	ldr     r0, [r6, #20]
      0x00009610: f8d0018c	ldr.w   r0, [r0, #396]
      0x00009614: b190    	cbz     r0, +36 (0x0000963c)
      0x00009616: 1c07    	mov     r7, r0
      0x00009618: f6457e79	movw    lr, #24441
      0x0000961c: f2c71eef	movt    lr, #29167
      0x00009620: f24d7048	movw    r0, #55112
      0x00009624: f6c67090	movt    r0, #28560
      0x00009628: 1c29    	mov     r1, r5
      0x0000962a: 1c3a    	mov     r2, r7
      0x0000962c: 47f0    	blx     lr
      suspend point dex PC: 0x0004
      GC map objects:  v0 (r5), v1 (r7), v2 ([sp + #52])
      0x0000962e: 3c01    	subs    r4, #1
      0x00009630: f000800a	beq.w   +20 (0x00009648)
      0x00009634: 1c28    	mov     r0, r5
      0x00009636: b008    	add     sp, sp, #32
      0x00009638: e8bd80e0	pop     {r5, r6, r7, pc}
      0x0000963c: f8d9e150	ldr.w   lr, [r9, #336]  ; pResolveString
      0x00009640: 1c30    	mov     r0, r6
      0x00009642: 2160    	movs    r1, #96
      0x00009644: 47f0    	blx     lr
      suspend point dex PC: 0x0002
      GC map objects:  v0 (r5), v2 ([sp + #52])
      0x00009646: e7e6    	b       -52 (0x00009616)
      0x00009648: f8d9e230	ldr.w   lr, [r9, #560]  ; pTestSuspend
      0x0000964c: 47f0    	blx     lr
      suspend point dex PC: 0x0007
      GC map objects:  v0 (r5)
      0x0000964e: e7f1    	b       -30 (0x00009634)
18: Lcom/android/cm3/StopWatch; (offset=0x00004744) (type_idx=27) (StatusInitialized) (OatClassAllCompiled)
  0: void com.android.cm3.StopWatch.<init>() (dex_method_idx=97) 65537
    DEX CODE:
      0x0000: const-wide/16 v0, #+0
      0x0002: invoke-direct {v2}, void java.lang.Object.<init>() // method@120
      0x0005: iput-wide v0, v2, J com.android.cm3.StopWatch.lStartTime // field@41
      0x0007: iput-wide v0, v2, J com.android.cm3.StopWatch.lStopTime // field@42
      0x0009: const/4 v0, #+0
      0x000a: iput-boolean v0, v2, Z com.android.cm3.StopWatch.bTicking // field@40
      0x000c: return-void
    OatMethodOffsets (offset=0x00004748)
      code_offset: 0x00009669 
      gc_map: (offset=0x00004fda)
    OatQuickMethodHeader (offset=0x00009650)
      mapping_table: (offset=0x00005548)
      vmap_table: (offset=0x000056a7)
      v2/r5, v65534/r6, v65535/r15
    QuickMethodFrameInfo
      frame_size_in_bytes: 32
      core_spill_mask: 0x00008060 (r5, r6, r15)
      fp_spill_mask: 0x00000000 
    CODE: (code_offset=0x00009669 size_offset=0x00009664 size=88)...
      0x00009668: f5bd5c00	subs    r12, sp, #8192
      0x0000966c: f8dcc000	ldr.w   r12, [r12, #0]
      suspend point dex PC: 0x0000
      GC map objects:  v2 (r5)
      0x00009670: e92d4060	push    {r5, r6, lr}
      0x00009674: b085    	sub     sp, sp, #20
      0x00009676: 1c06    	mov     r6, r0
      0x00009678: 9000    	str     r0, [sp, #0]
      0x0000967a: 1c0d    	mov     r5, r1
      0x0000967c: 2200    	movs    r2, #0
      0x0000967e: 2300    	movs    r3, #0
      0x00009680: e9cd2302	strd    r2,r3, [sp, #+8]
      0x00009684: f24b0e71	movw    lr, #45169
      0x00009688: f2c71ee7	movt    lr, #29159
      0x0000968c: f24d3060	movw    r0, #54112
      0x00009690: f6c6708c	movt    r0, #28556
      0x00009694: 1c29    	mov     r1, r5
      0x00009696: 47f0    	blx     lr
      suspend point dex PC: 0x0002
      GC map objects:  v2 (r5)
      0x00009698: f04f0c00	mov.w   r12, #0
      0x0000969c: 2000    	movs    r0, #0
      0x0000969e: e9c5c002	strd    r12,r0, [r5, #+8]
      0x000096a2: e9c5c004	strd    r12,r0, [r5, #+16]
      0x000096a6: 2100    	movs    r1, #0
      0x000096a8: 9102    	str     r1, [sp, #8]
      0x000096aa: 61a9    	str     r1, [r5, #24]
      0x000096ac: 3c01    	subs    r4, #1
      0x000096ae: f0008003	beq.w   +6 (0x000096b8)
      0x000096b2: b005    	add     sp, sp, #20
      0x000096b4: e8bd8060	pop     {r5, r6, pc}
      0x000096b8: f8d9e230	ldr.w   lr, [r9, #560]  ; pTestSuspend
      0x000096bc: 47f0    	blx     lr
      suspend point dex PC: 0x000c
      0x000096be: e7f8    	b       -16 (0x000096b2)
  1: void com.android.cm3.StopWatch.ClearTimer() (dex_method_idx=98) 1
    DEX CODE:
      0x0000: invoke-virtual {v2}, void com.android.cm3.StopWatch.StopTimer() // method@101
      0x0003: iget-wide v0, v2, J com.android.cm3.StopWatch.lStopTime // field@42
      0x0005: iput-wide v0, v2, J com.android.cm3.StopWatch.lStartTime // field@41
      0x0007: return-void
    OatMethodOffsets (offset=0x00004750)
      code_offset: 0x000096d9 
      gc_map: (offset=0x00004fe4)
    OatQuickMethodHeader (offset=0x000096c0)
      mapping_table: (offset=0x00005550)
      vmap_table: (offset=0x000056ab)
      v2/r5, v0/r6, v1/r7, v65534/r8, v65535/r15
    QuickMethodFrameInfo
      frame_size_in_bytes: 48
      core_spill_mask: 0x000081e0 (r5, r6, r7, r8, r15)
      fp_spill_mask: 0x00000000 
    CODE: (code_offset=0x000096d9 size_offset=0x000096d4 size=64)...
      0x000096d8: f5bd5c00	subs    r12, sp, #8192
      0x000096dc: f8dcc000	ldr.w   r12, [r12, #0]
      suspend point dex PC: 0x0000
      GC map objects:  v2 (r5)
      0x000096e0: e92d41e0	push    {r5, r6, r7, r8, lr}
      0x000096e4: b087    	sub     sp, sp, #28
      0x000096e6: 4680    	mov     r8, r0
      0x000096e8: 9000    	str     r0, [sp, #0]
      0x000096ea: 1c0d    	mov     r5, r1
      0x000096ec: 1c29    	mov     r1, r5
      0x000096ee: 6808    	ldr     r0, [r1, #0]
      0x000096f0: f8d001a8	ldr.w   r0, [r0, #424]
      0x000096f4: f8d0e028	ldr.w   lr, [r0, #40]
      0x000096f8: 47f0    	blx     lr
      suspend point dex PC: 0x0000
      GC map objects:  v2 (r5)
      0x000096fa: e9d56704	ldrd    r6,r7, [r5, #+16]
      0x000096fe: e9c56702	strd    r6,r7, [r5, #+8]
      0x00009702: 3c01    	subs    r4, #1
      0x00009704: f0008003	beq.w   +6 (0x0000970e)
      0x00009708: b007    	add     sp, sp, #28
      0x0000970a: e8bd81e0	pop     {r5, r6, r7, r8, pc}
      0x0000970e: f8d9e230	ldr.w   lr, [r9, #560]  ; pTestSuspend
      0x00009712: 47f0    	blx     lr
      suspend point dex PC: 0x0007
      0x00009714: e7f8    	b       -16 (0x00009708)
      0x00009716: 0000    	lsls    r0, r0, #0
  2: long com.android.cm3.StopWatch.Milliseconds() (dex_method_idx=99) 1
    DEX CODE:
      0x0000: iget-boolean v1, v5, Z com.android.cm3.StopWatch.bTicking // field@40
      0x0002: if-eqz v1, +13
      0x0004: new-instance v0, java.util.Date // type@45
      0x0006: invoke-direct {v0}, void java.util.Date.<init>() // method@136
      0x0009: invoke-virtual {v0}, long java.util.Date.getTime() // method@137
      0x000c: move-result-wide v1
      0x000d: iput-wide v1, v5, J com.android.cm3.StopWatch.lStopTime // field@42
      0x000f: iget-wide v1, v5, J com.android.cm3.StopWatch.lStopTime // field@42
      0x0011: iget-wide v3, v5, J com.android.cm3.StopWatch.lStartTime // field@41
      0x0013: sub-long/2addr v1, v3
      0x0014: return-wide v1
    OatMethodOffsets (offset=0x00004758)
      code_offset: 0x00009731 
      gc_map: (offset=0x00004fee)
    OatQuickMethodHeader (offset=0x00009718)
      mapping_table: (offset=0x00005558)
      vmap_table: (offset=0x000056b1)
      v1/r5, v5/r6, v2/r7, v65534/r8, v0/r10, v3/r11, v65535/r15
    QuickMethodFrameInfo
      frame_size_in_bytes: 64
      core_spill_mask: 0x00008de0 (r5, r6, r7, r8, r10, r11, r15)
      fp_spill_mask: 0x00000000 
    CODE: (code_offset=0x00009731 size_offset=0x0000972c size=132)...
      0x00009730: f5bd5c00	subs    r12, sp, #8192
      0x00009734: f8dcc000	ldr.w   r12, [r12, #0]
      suspend point dex PC: 0x0000
      GC map objects:  v5 (r6)
      0x00009738: e92d4de0	push    {r5, r6, r7, r8, r10, r11, lr}
      0x0000973c: b089    	sub     sp, sp, #36
      0x0000973e: 4680    	mov     r8, r0
      0x00009740: 9000    	str     r0, [sp, #0]
      0x00009742: 1c0e    	mov     r6, r1
      0x00009744: 69b5    	ldr     r5, [r6, #24]
      0x00009746: b305    	cbz     r5, +64 (0x0000978a)
      0x00009748: f8d9e128	ldr.w   lr, [r9, #296]  ; pAllocObjectResolved
      0x0000974c: 4641    	mov     r1, r8
      0x0000974e: f6424078	movw    r0, #11384
      0x00009752: f6c6709e	movt    r0, #28574
      0x00009756: 47f0    	blx     lr
      suspend point dex PC: 0x0004
      GC map objects:  v5 (r6)
      0x00009758: 4682    	mov     r10, r0
      0x0000975a: f24f4e59	movw    lr, #62553
      0x0000975e: f2c71ef9	movt    lr, #29177
      0x00009762: f6427008	movw    r0, #12040
      0x00009766: f6c6709e	movt    r0, #28574
      0x0000976a: 4651    	mov     r1, r10
      0x0000976c: 47f0    	blx     lr
      suspend point dex PC: 0x0006
      GC map objects:  v0 (r10), v5 (r6)
      0x0000976e: f6400e29	movw    lr, #2089
      0x00009772: f2c71eee	movt    lr, #29166
      0x00009776: f24370b8	movw    r0, #14264
      0x0000977a: f6c6709e	movt    r0, #28574
      0x0000977e: 4651    	mov     r1, r10
      0x00009780: 47f0    	blx     lr
      suspend point dex PC: 0x0009
      GC map objects:  v0 (r10), v5 (r6)
      0x00009782: 1c05    	mov     r5, r0
      0x00009784: 1c0f    	mov     r7, r1
      0x00009786: e9c65704	strd    r5,r7, [r6, #+16]
      0x0000978a: e9d65704	ldrd    r5,r7, [r6, #+16]
      0x0000978e: e9d62302	ldrd    r2,r3, [r6, #+8]
      0x00009792: e9cd2306	strd    r2,r3, [sp, #+24]
      0x00009796: 1aad    	subs    r5, r5, r2
      0x00009798: eb770703	sbcs.w  r7, r7, r3
      0x0000979c: 3c01    	subs    r4, #1
      0x0000979e: f0008005	beq.w   +10 (0x000097ac)
      0x000097a2: 1c28    	mov     r0, r5
      0x000097a4: 1c39    	mov     r1, r7
      0x000097a6: b009    	add     sp, sp, #36
      0x000097a8: e8bd8de0	pop     {r5, r6, r7, r8, r10, r11, pc}
      0x000097ac: f8d9e230	ldr.w   lr, [r9, #560]  ; pTestSuspend
      0x000097b0: 47f0    	blx     lr
      suspend point dex PC: 0x0014
      0x000097b2: e7f6    	b       -20 (0x000097a2)
  3: void com.android.cm3.StopWatch.StartTimer() (dex_method_idx=100) 1
    DEX CODE:
      0x0000: iget-boolean v1, v3, Z com.android.cm3.StopWatch.bTicking // field@40
      0x0002: if-nez v1, +20
      0x0004: const/4 v1, #+1
      0x0005: iput-boolean v1, v3, Z com.android.cm3.StopWatch.bTicking // field@40
      0x0007: new-instance v0, java.util.Date // type@45
      0x0009: invoke-direct {v0}, void java.util.Date.<init>() // method@136
      0x000c: invoke-virtual {v0}, long java.util.Date.getTime() // method@137
      0x000f: move-result-wide v1
      0x0010: iput-wide v1, v3, J com.android.cm3.StopWatch.lStartTime // field@41
      0x0012: iget-wide v1, v3, J com.android.cm3.StopWatch.lStartTime // field@41
      0x0014: iput-wide v1, v3, J com.android.cm3.StopWatch.lStopTime // field@42
      0x0016: return-void
    OatMethodOffsets (offset=0x00004760)
      code_offset: 0x000097d1 
      gc_map: (offset=0x00004ffc)
    OatQuickMethodHeader (offset=0x000097b8)
      mapping_table: (offset=0x00005564)
      vmap_table: (offset=0x000056b9)
      v3/r5, v1/r6, v65534/r7, v0/r8, v2/r10, v65535/r15
    QuickMethodFrameInfo
      frame_size_in_bytes: 48
      core_spill_mask: 0x000085e0 (r5, r6, r7, r8, r10, r15)
      fp_spill_mask: 0x00000000 
    CODE: (code_offset=0x000097d1 size_offset=0x000097cc size=124)...
      0x000097d0: f5bd5c00	subs    r12, sp, #8192
      0x000097d4: f8dcc000	ldr.w   r12, [r12, #0]
      suspend point dex PC: 0x0000
      GC map objects:  v3 (r5)
      0x000097d8: e92d45e0	push    {r5, r6, r7, r8, r10, lr}
      0x000097dc: b086    	sub     sp, sp, #24
      0x000097de: 1c07    	mov     r7, r0
      0x000097e0: 9000    	str     r0, [sp, #0]
      0x000097e2: 1c0d    	mov     r5, r1
      0x000097e4: 69ae    	ldr     r6, [r5, #24]
      0x000097e6: bb36    	cbnz    r6, +76 (0x00009836)
      0x000097e8: 2601    	movs    r6, #1
      0x000097ea: 61ae    	str     r6, [r5, #24]
      0x000097ec: f8d9e128	ldr.w   lr, [r9, #296]  ; pAllocObjectResolved
      0x000097f0: 1c39    	mov     r1, r7
      0x000097f2: f6424078	movw    r0, #11384
      0x000097f6: f6c6709e	movt    r0, #28574
      0x000097fa: 47f0    	blx     lr
      suspend point dex PC: 0x0007
      GC map objects:  v3 (r5)
      0x000097fc: 4680    	mov     r8, r0
      0x000097fe: f24f4e59	movw    lr, #62553
      0x00009802: f2c71ef9	movt    lr, #29177
      0x00009806: f6427008	movw    r0, #12040
      0x0000980a: f6c6709e	movt    r0, #28574
      0x0000980e: 4641    	mov     r1, r8
      0x00009810: 47f0    	blx     lr
      suspend point dex PC: 0x0009
      GC map objects:  v0 (r8), v3 (r5)
      0x00009812: f6400e29	movw    lr, #2089
      0x00009816: f2c71eee	movt    lr, #29166
      0x0000981a: f24370b8	movw    r0, #14264
      0x0000981e: f6c6709e	movt    r0, #28574
      0x00009822: 4641    	mov     r1, r8
      0x00009824: 47f0    	blx     lr
      suspend point dex PC: 0x000c
      GC map objects:  v0 (r8), v3 (r5)
      0x00009826: 1c06    	mov     r6, r0
      0x00009828: 468a    	mov     r10, r1
      0x0000982a: e9c56a02	strd    r6,r10, [r5, #+8]
      0x0000982e: e9d56a02	ldrd    r6,r10, [r5, #+8]
      0x00009832: e9c56a04	strd    r6,r10, [r5, #+16]
      0x00009836: 3c01    	subs    r4, #1
      0x00009838: f0008003	beq.w   +6 (0x00009842)
      0x0000983c: b006    	add     sp, sp, #24
      0x0000983e: e8bd85e0	pop     {r5, r6, r7, r8, r10, pc}
      0x00009842: f8d9e230	ldr.w   lr, [r9, #560]  ; pTestSuspend
      0x00009846: 47f0    	blx     lr
      suspend point dex PC: 0x0016
      0x00009848: e7f8    	b       -16 (0x0000983c)
      0x0000984a: 0000    	lsls    r0, r0, #0
  4: void com.android.cm3.StopWatch.StopTimer() (dex_method_idx=101) 1
    DEX CODE:
      0x0000: iget-boolean v1, v3, Z com.android.cm3.StopWatch.bTicking // field@40
      0x0002: if-eqz v1, +16
      0x0004: const/4 v1, #+0
      0x0005: iput-boolean v1, v3, Z com.android.cm3.StopWatch.bTicking // field@40
      0x0007: new-instance v0, java.util.Date // type@45
      0x0009: invoke-direct {v0}, void java.util.Date.<init>() // method@136
      0x000c: invoke-virtual {v0}, long java.util.Date.getTime() // method@137
      0x000f: move-result-wide v1
      0x0010: iput-wide v1, v3, J com.android.cm3.StopWatch.lStopTime // field@42
      0x0012: return-void
    OatMethodOffsets (offset=0x00004768)
      code_offset: 0x00009869 
      gc_map: (offset=0x0000500a)
    OatQuickMethodHeader (offset=0x00009850)
      mapping_table: (offset=0x00005570)
      vmap_table: (offset=0x000056c0)
      v3/r5, v65534/r6, v0/r7, v1/r8, v2/r10, v65535/r15
    QuickMethodFrameInfo
      frame_size_in_bytes: 48
      core_spill_mask: 0x000085e0 (r5, r6, r7, r8, r10, r15)
      fp_spill_mask: 0x00000000 
    CODE: (code_offset=0x00009869 size_offset=0x00009864 size=124)...
      0x00009868: f5bd5c00	subs    r12, sp, #8192
      0x0000986c: f8dcc000	ldr.w   r12, [r12, #0]
      suspend point dex PC: 0x0000
      GC map objects:  v3 (r5)
      0x00009870: e92d45e0	push    {r5, r6, r7, r8, r10, lr}
      0x00009874: b086    	sub     sp, sp, #24
      0x00009876: 1c06    	mov     r6, r0
      0x00009878: 9000    	str     r0, [sp, #0]
      0x0000987a: 1c0d    	mov     r5, r1
      0x0000987c: f8d58018	ldr.w   r8, [r5, #24]
      0x00009880: f1b80f00	cmp.w   r8, #0
      0x00009884: d024    	beq     +72 (0x000098d0)
      0x00009886: f04f0800	mov.w   r8, #0
      0x0000988a: f8c58018	str.w   r8, [r5, #24]
      0x0000988e: f8d9e128	ldr.w   lr, [r9, #296]  ; pAllocObjectResolved
      0x00009892: 1c31    	mov     r1, r6
      0x00009894: f6424078	movw    r0, #11384
      0x00009898: f6c6709e	movt    r0, #28574
      0x0000989c: 47f0    	blx     lr
      suspend point dex PC: 0x0007
      GC map objects:  v3 (r5)
      0x0000989e: 1c07    	mov     r7, r0
      0x000098a0: f24f4e59	movw    lr, #62553
      0x000098a4: f2c71ef9	movt    lr, #29177
      0x000098a8: f6427008	movw    r0, #12040
      0x000098ac: f6c6709e	movt    r0, #28574
      0x000098b0: 1c39    	mov     r1, r7
      0x000098b2: 47f0    	blx     lr
      suspend point dex PC: 0x0009
      GC map objects:  v0 (r7), v3 (r5)
      0x000098b4: f6400e29	movw    lr, #2089
      0x000098b8: f2c71eee	movt    lr, #29166
      0x000098bc: f24370b8	movw    r0, #14264
      0x000098c0: f6c6709e	movt    r0, #28574
      0x000098c4: 1c39    	mov     r1, r7
      0x000098c6: 47f0    	blx     lr
      suspend point dex PC: 0x000c
      GC map objects:  v0 (r7), v3 (r5)
      0x000098c8: 4680    	mov     r8, r0
      0x000098ca: 468a    	mov     r10, r1
      0x000098cc: e9c58a04	strd    r8,r10, [r5, #+16]
      0x000098d0: 3c01    	subs    r4, #1
      0x000098d2: f0008003	beq.w   +6 (0x000098dc)
      0x000098d6: b006    	add     sp, sp, #24
      0x000098d8: e8bd85e0	pop     {r5, r6, r7, r8, r10, pc}
      0x000098dc: f8d9e230	ldr.w   lr, [r9, #560]  ; pTestSuspend
      0x000098e0: 47f0    	blx     lr
      suspend point dex PC: 0x0012
      0x000098e2: e7f8    	b       -16 (0x000098d6)
19: Lcom/android/cm3/StringAtom; (offset=0x00004770) (type_idx=28) (StatusInitialized) (OatClassAllCompiled)
  0: void com.android.cm3.StringAtom.<init>() (dex_method_idx=102) 65537
    DEX CODE:
      0x0000: invoke-direct {v1}, void java.lang.Object.<init>() // method@120
      0x0003: const/16 v0, #+50
      0x0005: iput v0, v1, I com.android.cm3.StringAtom.wIterationCount // field@46
      0x0007: return-void
    OatMethodOffsets (offset=0x00004774)
      code_offset: 0x00009901 
      gc_map: (offset=0x00004f4e)
    OatQuickMethodHeader (offset=0x000098e8)
      mapping_table: (offset=0x000054f2)
      vmap_table: (offset=0x00005645)
      v1/r5, v65534/r6, v65535/r15
    QuickMethodFrameInfo
      frame_size_in_bytes: 32
      core_spill_mask: 0x00008060 (r5, r6, r15)
      fp_spill_mask: 0x00000000 
    CODE: (code_offset=0x00009901 size_offset=0x000098fc size=68)...
      0x00009900: f5bd5c00	subs    r12, sp, #8192
      0x00009904: f8dcc000	ldr.w   r12, [r12, #0]
      suspend point dex PC: 0x0000
      GC map objects:  v1 (r5)
      0x00009908: e92d4060	push    {r5, r6, lr}
      0x0000990c: b085    	sub     sp, sp, #20
      0x0000990e: 1c06    	mov     r6, r0
      0x00009910: 9000    	str     r0, [sp, #0]
      0x00009912: 1c0d    	mov     r5, r1
      0x00009914: f24b0e71	movw    lr, #45169
      0x00009918: f2c71ee7	movt    lr, #29159
      0x0000991c: f24d3060	movw    r0, #54112
      0x00009920: f6c6708c	movt    r0, #28556
      0x00009924: 1c29    	mov     r1, r5
      0x00009926: 47f0    	blx     lr
      suspend point dex PC: 0x0000
      GC map objects:  v1 (r5)
      0x00009928: 2232    	movs    r2, #50
      0x0000992a: 9203    	str     r2, [sp, #12]
      0x0000992c: 616a    	str     r2, [r5, #20]
      0x0000992e: 3c01    	subs    r4, #1
      0x00009930: f0008003	beq.w   +6 (0x0000993a)
      0x00009934: b005    	add     sp, sp, #20
      0x00009936: e8bd8060	pop     {r5, r6, pc}
      0x0000993a: f8d9e230	ldr.w   lr, [r9, #560]  ; pTestSuspend
      0x0000993e: 47f0    	blx     lr
      suspend point dex PC: 0x0007
      0x00009940: e7f8    	b       -16 (0x00009934)
      0x00009942: 0000    	lsls    r0, r0, #0
  1: int com.android.cm3.StringAtom.cleanUp() (dex_method_idx=103) 1
    DEX CODE:
      0x0000: const/4 v0, #+0
      0x0001: return v0
    OatMethodOffsets (offset=0x0000477c)
      code_offset: 0x00007ea1 
      gc_map: (offset=0x00004842)
    OatQuickMethodHeader (offset=0x00007e88)
      mapping_table: (offset=0x000050dc)
      vmap_table: (offset=0x000055db)
      
    QuickMethodFrameInfo
      frame_size_in_bytes: 0
      core_spill_mask: 0x00000000 
      fp_spill_mask: 0x00000000 
    CODE: (code_offset=0x00007ea1 size_offset=0x00007e9c size=4)...
      0x00007ea0: 2000    	movs    r0, #0
      0x00007ea2: 4770    	bx      lr
  2: int com.android.cm3.StringAtom.defaultMagnification() (dex_method_idx=104) 1
    DEX CODE:
      0x0000: const/16 v0, #+2771
      0x0002: return v0
    OatMethodOffsets (offset=0x00004784)
      code_offset: 0x00009449 
      gc_map: (offset=0x00004842)
    OatQuickMethodHeader (offset=0x00009430)
      mapping_table: (offset=0x000050dc)
      vmap_table: (offset=0x000055db)
      
    QuickMethodFrameInfo
      frame_size_in_bytes: 0
      core_spill_mask: 0x00000000 
      fp_spill_mask: 0x00000000 
    CODE: (code_offset=0x00009449 size_offset=0x00009444 size=8)...
      0x00009448: f64020d3	movw    r0, #2771
      0x0000944c: 4770    	bx      lr
      0x0000944e: 0000    	lsls    r0, r0, #0
  3: int com.android.cm3.StringAtom.execute() (dex_method_idx=105) 1
    DEX CODE:
      0x0000: const-string v5, "four" // string@168
      0x0002: new-instance v2, java.lang.StringBuffer // type@40
      0x0004: const-string v3, "Test" // string@106
      0x0006: invoke-direct {v2, v3}, void java.lang.StringBuffer.<init>(java.lang.String) // method@123
      0x0009: const/4 v0, #+0
      0x000a: iget v3, v6, I com.android.cm3.StringAtom.wIterationCount // field@46
      0x000c: if-lt v0, v3, +17
      0x000e: const-string v3, "four" // string@168
      0x0010: invoke-virtual {v2, v5}, java.lang.StringBuffer java.lang.StringBuffer.append(java.lang.String) // method@124
      0x0013: const/4 v1, #+0
      0x0014: iget v3, v6, I com.android.cm3.StringAtom.wIterationCount // field@46
      0x0016: if-lt v1, v3, +27
      0x0018: invoke-virtual {v2}, int java.lang.StringBuffer.length() // method@125
      0x001b: move-result v3
      0x001c: return v3
      0x001d: iget-object v3, v6, Ljava/lang/String; com.android.cm3.StringAtom.sPattern1 // field@43
      0x001f: invoke-virtual {v2, v3}, java.lang.StringBuffer java.lang.StringBuffer.append(java.lang.String) // method@124
      0x0022: move-result-object v3
      0x0023: iget-object v4, v6, Ljava/lang/String; com.android.cm3.StringAtom.sPattern2 // field@44
      0x0025: invoke-virtual {v3, v4}, java.lang.StringBuffer java.lang.StringBuffer.append(java.lang.String) // method@124
      0x0028: move-result-object v3
      0x0029: iget-object v4, v6, Ljava/lang/String; com.android.cm3.StringAtom.sPattern3 // field@45
      0x002b: invoke-virtual {v3, v4}, java.lang.StringBuffer java.lang.StringBuffer.append(java.lang.String) // method@124
      0x002e: add-int/lit8 v0, v0, #+1
      0x0030: goto -38
      0x0031: invoke-virtual {v2}, java.lang.String java.lang.StringBuffer.toString() // method@126
      0x0034: move-result-object v3
      0x0035: const-string v4, "four" // string@168
      0x0037: mul-int/lit8 v4, v1, #+65
      0x0039: invoke-virtual {v3, v5, v4}, int java.lang.String.indexOf(java.lang.String, int) // method@122
      0x003c: add-int/lit8 v1, v1, #+1
      0x003e: goto -42
    OatMethodOffsets (offset=0x0000478c)
      code_offset: 0x00009961 
      gc_map: (offset=0x00005018)
    OatQuickMethodHeader (offset=0x00009948)
      mapping_table: (offset=0x0000557c)
      vmap_table: (offset=0x000056c7)
      v65534/r5, v3/r6, v6/r7, v4/r8, v2/r10, v1/r11, v65535/r15
    QuickMethodFrameInfo
      frame_size_in_bytes: 80
      core_spill_mask: 0x00008de0 (r5, r6, r7, r8, r10, r11, r15)
      fp_spill_mask: 0x00000000 
    CODE: (code_offset=0x00009961 size_offset=0x0000995c size=412)...
      0x00009960: f5bd5c00	subs    r12, sp, #8192
      0x00009964: f8dcc000	ldr.w   r12, [r12, #0]
      suspend point dex PC: 0x0000
      GC map objects:  v6 (r7)
      0x00009968: e92d4de0	push    {r5, r6, r7, r8, r10, r11, lr}
      0x0000996c: b08d    	sub     sp, sp, #52
      0x0000996e: 1c05    	mov     r5, r0
      0x00009970: 9000    	str     r0, [sp, #0]
      0x00009972: 1c0f    	mov     r7, r1
      0x00009974: 6968    	ldr     r0, [r5, #20]
      0x00009976: f8d002ac	ldr.w   r0, [r0, #684]
      0x0000997a: 2800    	cmp     r0, #0
      0x0000997c: f00080a1	beq.w   +322 (0x00009ac2)
      0x00009980: f8d9e12c	ldr.w   lr, [r9, #300]  ; pAllocObjectInitialized
      0x00009984: 900b    	str     r0, [sp, #44]
      0x00009986: 1c29    	mov     r1, r5
      0x00009988: f24430b0	movw    r0, #17328
      0x0000998c: f6c67096	movt    r0, #28566
      0x00009990: 47f0    	blx     lr
      suspend point dex PC: 0x0002
      GC map objects:  v5 ([sp + #44]), v6 (r7)
      0x00009992: 4682    	mov     r10, r0
      0x00009994: 6968    	ldr     r0, [r5, #20]
      0x00009996: f8d001b4	ldr.w   r0, [r0, #436]
      0x0000999a: 2800    	cmp     r0, #0
      0x0000999c: f0008097	beq.w   +302 (0x00009ace)
      0x000099a0: 1c06    	mov     r6, r0
      0x000099a2: f64a5eb1	movw    lr, #44465
      0x000099a6: f2c71eef	movt    lr, #29167
      0x000099aa: f24470b8	movw    r0, #18360
      0x000099ae: f6c67096	movt    r0, #28566
      0x000099b2: 4651    	mov     r1, r10
      0x000099b4: 1c32    	mov     r2, r6
      0x000099b6: 47f0    	blx     lr
      suspend point dex PC: 0x0006
      GC map objects:  v2 (r10), v3 (r6), v5 ([sp + #44]), v6 (r7)
      0x000099b8: 2200    	movs    r2, #0
      0x000099ba: 9206    	str     r2, [sp, #24]
      0x000099bc: 697e    	ldr     r6, [r7, #20]
      0x000099be: 9b06    	ldr     r3, [sp, #24]
      0x000099c0: 42b3    	cmp     r3, r6
      0x000099c2: f2c0804e	blt.w   +156 (0x00009a62)
      0x000099c6: 6968    	ldr     r0, [r5, #20]
      0x000099c8: f8d002ac	ldr.w   r0, [r0, #684]
      0x000099cc: 2800    	cmp     r0, #0
      0x000099ce: f0008084	beq.w   +264 (0x00009ada)
      0x000099d2: 9a0b    	ldr     r2, [sp, #44]
      0x000099d4: 1c06    	mov     r6, r0
      0x000099d6: f24b6ee9	movw    lr, #46825
      0x000099da: f2c71eef	movt    lr, #29167
      0x000099de: f64460a0	movw    r0, #20128
      0x000099e2: f6c67096	movt    r0, #28566
      0x000099e6: 4651    	mov     r1, r10
      0x000099e8: 47f0    	blx     lr
      suspend point dex PC: 0x0010
      GC map objects:  v2 (r10), v3 (r6), v5 ([sp + #44]), v6 (r7)
      0x000099ea: f04f0b00	mov.w   r11, #0
      0x000099ee: 697e    	ldr     r6, [r7, #20]
      0x000099f0: 45b3    	cmp     r11, r6
      0x000099f2: f2c08012	blt.w   +36 (0x00009a1a)
      0x000099f6: f6424eb9	movw    lr, #11449
      0x000099fa: f2c71ee9	movt    lr, #29161
      0x000099fe: f6442010	movw    r0, #18960
      0x00009a02: f6c67096	movt    r0, #28566
      0x00009a06: 4651    	mov     r1, r10
      0x00009a08: 47f0    	blx     lr
      suspend point dex PC: 0x0018
      GC map objects:  v2 (r10), v5 ([sp + #44]), v6 (r7)
      0x00009a0a: 1c06    	mov     r6, r0
      0x00009a0c: 3c01    	subs    r4, #1
      0x00009a0e: f000806a	beq.w   +212 (0x00009ae6)
      0x00009a12: 1c30    	mov     r0, r6
      0x00009a14: b00d    	add     sp, sp, #52
      0x00009a16: e8bd8de0	pop     {r5, r6, r7, r8, r10, r11, pc}
      0x00009a1a: f24d3e51	movw    lr, #54097
      0x00009a1e: f2c71eef	movt    lr, #29167
      0x00009a22: f64420a0	movw    r0, #19104
      0x00009a26: f6c67096	movt    r0, #28566
      0x00009a2a: 4651    	mov     r1, r10
      0x00009a2c: 47f0    	blx     lr
      suspend point dex PC: 0x0031
      GC map objects:  v2 (r10), v5 ([sp + #44]), v6 (r7)
      0x00009a2e: 1c06    	mov     r6, r0
      0x00009a30: 6968    	ldr     r0, [r5, #20]
      0x00009a32: f8d002ac	ldr.w   r0, [r0, #684]
      0x00009a36: 2800    	cmp     r0, #0
      0x00009a38: d059    	beq     +178 (0x00009aee)
      0x00009a3a: 9a0b    	ldr     r2, [sp, #44]
      0x00009a3c: 4680    	mov     r8, r0
      0x00009a3e: eb1b188b	adds.w  r8, r11, r11, lsl #6
      0x00009a42: f2494ef1	movw    lr, #38129
      0x00009a46: f2c71eef	movt    lr, #29167
      0x00009a4a: f64e7018	movw    r0, #61208
      0x00009a4e: f6c67090	movt    r0, #28560
      0x00009a52: 1c31    	mov     r1, r6
      0x00009a54: 4643    	mov     r3, r8
      0x00009a56: f8d1c000	ldr.w   r12, [r1, #0]
      suspend point dex PC: 0x0039
      GC map objects:  v2 (r10), v3 (r6), v5 ([sp + #44]), v6 (r7)
      0x00009a5a: 47f0    	blx     lr
      suspend point dex PC: 0x0039
      GC map objects:  v2 (r10), v3 (r6), v5 ([sp + #44]), v6 (r7)
      0x00009a5c: f11b0b01	adds    r11, r11, #1
      0x00009a60: e7c5    	b       -118 (0x000099ee)
      0x00009a62: 68be    	ldr     r6, [r7, #8]
      0x00009a64: f24b6ee9	movw    lr, #46825
      0x00009a68: f2c71eef	movt    lr, #29167
      0x00009a6c: f64460a0	movw    r0, #20128
      0x00009a70: f6c67096	movt    r0, #28566
      0x00009a74: 4651    	mov     r1, r10
      0x00009a76: 1c32    	mov     r2, r6
      0x00009a78: 47f0    	blx     lr
      suspend point dex PC: 0x001f
      GC map objects:  v2 (r10), v3 (r6), v5 ([sp + #44]), v6 (r7)
      0x00009a7a: f8d7800c	ldr.w   r8, [r7, #12]
      0x00009a7e: 1c06    	mov     r6, r0
      0x00009a80: f24b6ee9	movw    lr, #46825
      0x00009a84: f2c71eef	movt    lr, #29167
      0x00009a88: f64460a0	movw    r0, #20128
      0x00009a8c: f6c67096	movt    r0, #28566
      0x00009a90: 1c31    	mov     r1, r6
      0x00009a92: 4642    	mov     r2, r8
      0x00009a94: f8d1c000	ldr.w   r12, [r1, #0]
      suspend point dex PC: 0x0025
      GC map objects:  v2 (r10), v3 (r6), v4 (r8), v5 ([sp + #44]), v6 (r7)
      0x00009a98: 47f0    	blx     lr
      suspend point dex PC: 0x0025
      GC map objects:  v2 (r10), v3 (r6), v4 (r8), v5 ([sp + #44]), v6 (r7)
      0x00009a9a: f8d78010	ldr.w   r8, [r7, #16]
      0x00009a9e: 1c06    	mov     r6, r0
      0x00009aa0: f24b6ee9	movw    lr, #46825
      0x00009aa4: f2c71eef	movt    lr, #29167
      0x00009aa8: f64460a0	movw    r0, #20128
      0x00009aac: f6c67096	movt    r0, #28566
      0x00009ab0: 1c31    	mov     r1, r6
      0x00009ab2: 4642    	mov     r2, r8
      0x00009ab4: f8d1c000	ldr.w   r12, [r1, #0]
      suspend point dex PC: 0x002b
      GC map objects:  v2 (r10), v3 (r6), v4 (r8), v5 ([sp + #44]), v6 (r7)
      0x00009ab8: 47f0    	blx     lr
      suspend point dex PC: 0x002b
      GC map objects:  v2 (r10), v3 (r6), v4 (r8), v5 ([sp + #44]), v6 (r7)
      0x00009aba: 9806    	ldr     r0, [sp, #24]
      0x00009abc: 1c40    	adds    r0, r0, #1
      0x00009abe: 9006    	str     r0, [sp, #24]
      0x00009ac0: e77c    	b       -264 (0x000099bc)
      0x00009ac2: f8d9e150	ldr.w   lr, [r9, #336]  ; pResolveString
      0x00009ac6: 1c28    	mov     r0, r5
      0x00009ac8: 21a8    	movs    r1, #168
      0x00009aca: 47f0    	blx     lr
      suspend point dex PC: 0x0000
      GC map objects:  v6 (r7)
      0x00009acc: e758    	b       -336 (0x00009980)
      0x00009ace: f8d9e150	ldr.w   lr, [r9, #336]  ; pResolveString
      0x00009ad2: 1c28    	mov     r0, r5
      0x00009ad4: 216a    	movs    r1, #106
      0x00009ad6: 47f0    	blx     lr
      suspend point dex PC: 0x0004
      GC map objects:  v2 (r10), v5 ([sp + #44]), v6 (r7)
      0x00009ad8: e762    	b       -316 (0x000099a0)
      0x00009ada: f8d9e150	ldr.w   lr, [r9, #336]  ; pResolveString
      0x00009ade: 1c28    	mov     r0, r5
      0x00009ae0: 21a8    	movs    r1, #168
      0x00009ae2: 47f0    	blx     lr
      suspend point dex PC: 0x000e
      GC map objects:  v2 (r10), v5 ([sp + #44]), v6 (r7)
      0x00009ae4: e775    	b       -278 (0x000099d2)
      0x00009ae6: f8d9e230	ldr.w   lr, [r9, #560]  ; pTestSuspend
      0x00009aea: 47f0    	blx     lr
      suspend point dex PC: 0x001c
      0x00009aec: e791    	b       -222 (0x00009a12)
      0x00009aee: f8d9e150	ldr.w   lr, [r9, #336]  ; pResolveString
      0x00009af2: 1c28    	mov     r0, r5
      0x00009af4: 21a8    	movs    r1, #168
      0x00009af6: 47f0    	blx     lr
      suspend point dex PC: 0x0035
      GC map objects:  v2 (r10), v3 (r6), v5 ([sp + #44]), v6 (r7)
      0x00009af8: e79f    	b       -194 (0x00009a3a)
      0x00009afa: 0000    	lsls    r0, r0, #0
  4: boolean com.android.cm3.StringAtom.initialize(int) (dex_method_idx=106) 1
    DEX CODE:
      0x0000: if-eqz v2, +4
      0x0002: iput v2, v1, I com.android.cm3.StringAtom.wIterationCount // field@46
      0x0004: const-string v0, "one " // string@209
      0x0006: iput-object v0, v1, Ljava/lang/String; com.android.cm3.StringAtom.sPattern1 // field@43
      0x0008: const-string v0, "two " // string@247
      0x000a: iput-object v0, v1, Ljava/lang/String; com.android.cm3.StringAtom.sPattern2 // field@44
      0x000c: const-string v0, "three " // string@243
      0x000e: iput-object v0, v1, Ljava/lang/String; com.android.cm3.StringAtom.sPattern3 // field@45
      0x0010: const/4 v0, #+1
      0x0011: return v0
    OatMethodOffsets (offset=0x00004794)
      code_offset: 0x00009b19 
      gc_map: (offset=0x00005052)
    OatQuickMethodHeader (offset=0x00009b00)
      mapping_table: (offset=0x000055a2)
      vmap_table: (offset=0x000056cf)
      v1/r5, v0/r6, v2/r7, v65535/r15
    QuickMethodFrameInfo
      frame_size_in_bytes: 32
      core_spill_mask: 0x000080e0 (r5, r6, r7, r15)
      fp_spill_mask: 0x00000000 
    CODE: (code_offset=0x00009b19 size_offset=0x00009b14 size=152)...
      0x00009b18: e92d40e0	push    {r5, r6, r7, lr}
      0x00009b1c: b084    	sub     sp, sp, #16
      0x00009b1e: 9000    	str     r0, [sp, #0]
      0x00009b20: 1c0d    	mov     r5, r1
      0x00009b22: 1c17    	mov     r7, r2
      0x00009b24: b107    	cbz     r7, +0 (0x00009b28)
      0x00009b26: 616f    	str     r7, [r5, #20]
      0x00009b28: 9a00    	ldr     r2, [sp, #0]
      0x00009b2a: 6950    	ldr     r0, [r2, #20]
      0x00009b2c: f8d00350	ldr.w   r0, [r0, #848]
      0x00009b30: b338    	cbz     r0, +78 (0x00009b82)
      0x00009b32: 1c06    	mov     r6, r0
      0x00009b34: 60ae    	str     r6, [r5, #8]
      0x00009b36: b11e    	cbz     r6, +6 (0x00009b40)
      0x00009b38: f8d92078	ldr.w   r2, [r9, #120]  ; card_table
      0x00009b3c: 09eb    	lsrs    r3, r5, #7
      0x00009b3e: 54d2    	strb    r2, [r2, r3]
      0x00009b40: 9a00    	ldr     r2, [sp, #0]
      0x00009b42: 6950    	ldr     r0, [r2, #20]
      0x00009b44: f8d003e8	ldr.w   r0, [r0, #1000]
      0x00009b48: b308    	cbz     r0, +66 (0x00009b8e)
      0x00009b4a: 1c06    	mov     r6, r0
      0x00009b4c: 60ee    	str     r6, [r5, #12]
      0x00009b4e: b126    	cbz     r6, +8 (0x00009b5a)
      0x00009b50: f8d9c078	ldr.w   r12, [r9, #120]  ; card_table
      0x00009b54: 09e8    	lsrs    r0, r5, #7
      0x00009b56: f80cc000	strb    r12, [r12, r0]
      0x00009b5a: 9a00    	ldr     r2, [sp, #0]
      0x00009b5c: 6950    	ldr     r0, [r2, #20]
      0x00009b5e: f8d003d8	ldr.w   r0, [r0, #984]
      0x00009b62: b1d0    	cbz     r0, +52 (0x00009b9a)
      0x00009b64: 1c06    	mov     r6, r0
      0x00009b66: 612e    	str     r6, [r5, #16]
      0x00009b68: b11e    	cbz     r6, +6 (0x00009b72)
      0x00009b6a: f8d91078	ldr.w   r1, [r9, #120]  ; card_table
      0x00009b6e: 09ea    	lsrs    r2, r5, #7
      0x00009b70: 5489    	strb    r1, [r1, r2]
      0x00009b72: 2601    	movs    r6, #1
      0x00009b74: 3c01    	subs    r4, #1
      0x00009b76: f0008016	beq.w   +44 (0x00009ba6)
      0x00009b7a: 1c30    	mov     r0, r6
      0x00009b7c: b004    	add     sp, sp, #16
      0x00009b7e: e8bd80e0	pop     {r5, r6, r7, pc}
      0x00009b82: f8d9e150	ldr.w   lr, [r9, #336]  ; pResolveString
      0x00009b86: 1c10    	mov     r0, r2
      0x00009b88: 21d1    	movs    r1, #209
      0x00009b8a: 47f0    	blx     lr
      suspend point dex PC: 0x0004
      GC map objects:  v1 (r5)
      0x00009b8c: e7d1    	b       -94 (0x00009b32)
      0x00009b8e: f8d9e150	ldr.w   lr, [r9, #336]  ; pResolveString
      0x00009b92: 1c10    	mov     r0, r2
      0x00009b94: 21f7    	movs    r1, #247
      0x00009b96: 47f0    	blx     lr
      suspend point dex PC: 0x0008
      GC map objects:  v0 (r6), v1 (r5)
      0x00009b98: e7d7    	b       -82 (0x00009b4a)
      0x00009b9a: f8d9e150	ldr.w   lr, [r9, #336]  ; pResolveString
      0x00009b9e: 1c10    	mov     r0, r2
      0x00009ba0: 21f3    	movs    r1, #243
      0x00009ba2: 47f0    	blx     lr
      suspend point dex PC: 0x000c
      GC map objects:  v0 (r6), v1 (r5)
      0x00009ba4: e7de    	b       -68 (0x00009b64)
      0x00009ba6: f8d9e230	ldr.w   lr, [r9, #560]  ; pTestSuspend
      0x00009baa: 47f0    	blx     lr
      suspend point dex PC: 0x0011
      0x00009bac: e7e5    	b       -54 (0x00009b7a)
      0x00009bae: 0000    	lsls    r0, r0, #0
  5: void com.android.cm3.StringAtom.setLocal() (dex_method_idx=107) 1
    DEX CODE:
      0x0000: return-void
    OatMethodOffsets (offset=0x0000479c)
      code_offset: 0x00006571 
      gc_map: (offset=0x00004842)
    OatQuickMethodHeader (offset=0x00006558)
      mapping_table: (offset=0x000050dc)
      vmap_table: (offset=0x000055db)
      
    QuickMethodFrameInfo
      frame_size_in_bytes: 0
      core_spill_mask: 0x00000000 
      fp_spill_mask: 0x00000000 
    CODE: (code_offset=0x00006571 size_offset=0x0000656c size=4)...
      0x00006570: 4770    	bx      lr
      0x00006572: 0000    	lsls    r0, r0, #0
  6: void com.android.cm3.StringAtom.setRemote() (dex_method_idx=108) 1
    DEX CODE:
      0x0000: return-void
    OatMethodOffsets (offset=0x000047a4)
      code_offset: 0x00006571 
      gc_map: (offset=0x00004842)
    OatQuickMethodHeader (offset=0x00006558)
      mapping_table: (offset=0x000050dc)
      vmap_table: (offset=0x000055db)
      
    QuickMethodFrameInfo
      frame_size_in_bytes: 0
      core_spill_mask: 0x00000000 
      fp_spill_mask: 0x00000000 
    CODE: (code_offset=0x00006571 size_offset=0x0000656c size=4)...
      0x00006570: 4770    	bx      lr
      0x00006572: 0000    	lsls    r0, r0, #0
  7: java.lang.String com.android.cm3.StringAtom.testName() (dex_method_idx=109) 1
    DEX CODE:
      0x0000: new-instance v0, java.lang.String // type@39
      0x0002: const-string v1, "String" // string@102
      0x0004: invoke-direct {v0, v1}, void java.lang.String.<init>(java.lang.String) // method@121
      0x0007: return-object v0
    OatMethodOffsets (offset=0x000047ac)
      code_offset: 0x00009bc9 
      gc_map: (offset=0x00004ea2)
    OatQuickMethodHeader (offset=0x00009bb0)
      mapping_table: (offset=0x00005492)
      vmap_table: (offset=0x0000566a)
      v0/r5, v65534/r6, v1/r7, v65535/r15
    QuickMethodFrameInfo
      frame_size_in_bytes: 48
      core_spill_mask: 0x000080e0 (r5, r6, r7, r15)
      fp_spill_mask: 0x00000000 
    CODE: (code_offset=0x00009bc9 size_offset=0x00009bc4 size=104)...
      0x00009bc8: f5bd5c00	subs    r12, sp, #8192
      0x00009bcc: f8dcc000	ldr.w   r12, [r12, #0]
      suspend point dex PC: 0x0000
      GC map objects:  v2 ([sp + #52])
      0x00009bd0: e92d40e0	push    {r5, r6, r7, lr}
      0x00009bd4: b088    	sub     sp, sp, #32
      0x00009bd6: 1c06    	mov     r6, r0
      0x00009bd8: 9000    	str     r0, [sp, #0]
      0x00009bda: 910d    	str     r1, [sp, #52]
      0x00009bdc: f8d9e12c	ldr.w   lr, [r9, #300]  ; pAllocObjectInitialized
      0x00009be0: 1c31    	mov     r1, r6
      0x00009be2: f6450070	movw    r0, #22640
      0x00009be6: f6c6708b	movt    r0, #28555
      0x00009bea: 47f0    	blx     lr
      suspend point dex PC: 0x0000
      GC map objects:  v2 ([sp + #52])
      0x00009bec: 1c05    	mov     r5, r0
      0x00009bee: 6970    	ldr     r0, [r6, #20]
      0x00009bf0: f8d001a4	ldr.w   r0, [r0, #420]
      0x00009bf4: b190    	cbz     r0, +36 (0x00009c1c)
      0x00009bf6: 1c07    	mov     r7, r0
      0x00009bf8: f6457e79	movw    lr, #24441
      0x00009bfc: f2c71eef	movt    lr, #29167
      0x00009c00: f24d7048	movw    r0, #55112
      0x00009c04: f6c67090	movt    r0, #28560
      0x00009c08: 1c29    	mov     r1, r5
      0x00009c0a: 1c3a    	mov     r2, r7
      0x00009c0c: 47f0    	blx     lr
      suspend point dex PC: 0x0004
      GC map objects:  v0 (r5), v1 (r7), v2 ([sp + #52])
      0x00009c0e: 3c01    	subs    r4, #1
      0x00009c10: f000800a	beq.w   +20 (0x00009c28)
      0x00009c14: 1c28    	mov     r0, r5
      0x00009c16: b008    	add     sp, sp, #32
      0x00009c18: e8bd80e0	pop     {r5, r6, r7, pc}
      0x00009c1c: f8d9e150	ldr.w   lr, [r9, #336]  ; pResolveString
      0x00009c20: 1c30    	mov     r0, r6
      0x00009c22: 2166    	movs    r1, #102
      0x00009c24: 47f0    	blx     lr
      suspend point dex PC: 0x0002
      GC map objects:  v0 (r5), v2 ([sp + #52])
      0x00009c26: e7e6    	b       -52 (0x00009bf6)
      0x00009c28: f8d9e230	ldr.w   lr, [r9, #560]  ; pTestSuspend
      0x00009c2c: 47f0    	blx     lr
      suspend point dex PC: 0x0007
      GC map objects:  v0 (r5)
      0x00009c2e: e7f1    	b       -30 (0x00009c14)
